
cpu1.elf:     file format elf32-littlenios2
cpu1.elf
architecture: nios2, flags 0x00000112:
EXEC_P, HAS_SYMS, D_PAGED
start address 0x080001b8

Program Header:
    LOAD off    0x00001000 vaddr 0x08000000 paddr 0x08000000 align 2**12
         filesz 0x00000020 memsz 0x00000020 flags r-x
    LOAD off    0x00001020 vaddr 0x08000020 paddr 0x08000020 align 2**12
         filesz 0x00014be0 memsz 0x00014be0 flags r-x
    LOAD off    0x00015c00 vaddr 0x08014c00 paddr 0x080166f4 align 2**12
         filesz 0x00001af4 memsz 0x00001af4 flags rw-
    LOAD off    0x000181e8 vaddr 0x080181e8 paddr 0x080181e8 align 2**12
         filesz 0x00000000 memsz 0x000003ec flags rw-

Sections:
Idx Name          Size      VMA       LMA       File off  Algn
  0 .entry        00000020  08000000  08000000  00001000  2**5
                  CONTENTS, ALLOC, LOAD, READONLY, CODE
  1 .exceptions   00000198  08000020  08000020  00001020  2**2
                  CONTENTS, ALLOC, LOAD, READONLY, CODE
  2 .text         0001427c  080001b8  080001b8  000011b8  2**2
                  CONTENTS, ALLOC, LOAD, READONLY, CODE
  3 .rodata       000007cc  08014434  08014434  00015434  2**2
                  CONTENTS, ALLOC, LOAD, READONLY, DATA
  4 .rwdata       00001af4  08014c00  080166f4  00015c00  2**2
                  CONTENTS, ALLOC, LOAD, DATA, SMALL_DATA
  5 .bss          000003ec  080181e8  080181e8  000181e8  2**2
                  ALLOC, SMALL_DATA
  6 .comment      00000023  00000000  00000000  000176f4  2**0
                  CONTENTS, READONLY
  7 .debug_aranges 00001338  00000000  00000000  00017718  2**3
                  CONTENTS, READONLY, DEBUGGING
  8 .debug_info   00039a41  00000000  00000000  00018a50  2**0
                  CONTENTS, READONLY, DEBUGGING
  9 .debug_abbrev 0000decd  00000000  00000000  00052491  2**0
                  CONTENTS, READONLY, DEBUGGING
 10 .debug_line   000100ee  00000000  00000000  0006035e  2**0
                  CONTENTS, READONLY, DEBUGGING
 11 .debug_frame  00002538  00000000  00000000  0007044c  2**2
                  CONTENTS, READONLY, DEBUGGING
 12 .debug_str    0000433f  00000000  00000000  00072984  2**0
                  CONTENTS, READONLY, DEBUGGING
 13 .debug_loc    00019a72  00000000  00000000  00076cc3  2**0
                  CONTENTS, READONLY, DEBUGGING
 14 .debug_alt_sim_info 00000010  00000000  00000000  00090738  2**2
                  CONTENTS, READONLY, DEBUGGING
 15 .debug_ranges 00000dd0  00000000  00000000  00090748  2**3
                  CONTENTS, READONLY, DEBUGGING
 16 .thread_model 00000003  00000000  00000000  0009554f  2**0
                  CONTENTS, READONLY
 17 .cpu          00000004  00000000  00000000  00095552  2**0
                  CONTENTS, READONLY
 18 .qsys         00000001  00000000  00000000  00095556  2**0
                  CONTENTS, READONLY
 19 .simulation_enabled 00000001  00000000  00000000  00095557  2**0
                  CONTENTS, READONLY
 20 .sysid_hash   00000004  00000000  00000000  00095558  2**0
                  CONTENTS, READONLY
 21 .sysid_base   00000004  00000000  00000000  0009555c  2**0
                  CONTENTS, READONLY
 22 .sysid_time   00000004  00000000  00000000  00095560  2**0
                  CONTENTS, READONLY
 23 .stderr_dev   0000000a  00000000  00000000  00095564  2**0
                  CONTENTS, READONLY
 24 .stdin_dev    0000000a  00000000  00000000  0009556e  2**0
                  CONTENTS, READONLY
 25 .stdout_dev   0000000a  00000000  00000000  00095578  2**0
                  CONTENTS, READONLY
 26 .sopc_system_name 00000004  00000000  00000000  00095582  2**0
                  CONTENTS, READONLY
 27 .quartus_project_dir 00000052  00000000  00000000  00095586  2**0
                  CONTENTS, READONLY
 28 .sopcinfo     001cada7  00000000  00000000  000955d8  2**0
                  CONTENTS, READONLY
SYMBOL TABLE:
08000000 l    d  .entry	00000000 .entry
08000020 l    d  .exceptions	00000000 .exceptions
080001b8 l    d  .text	00000000 .text
08014434 l    d  .rodata	00000000 .rodata
08014c00 l    d  .rwdata	00000000 .rwdata
080181e8 l    d  .bss	00000000 .bss
00000000 l    d  .comment	00000000 .comment
00000000 l    d  .debug_aranges	00000000 .debug_aranges
00000000 l    d  .debug_info	00000000 .debug_info
00000000 l    d  .debug_abbrev	00000000 .debug_abbrev
00000000 l    d  .debug_line	00000000 .debug_line
00000000 l    d  .debug_frame	00000000 .debug_frame
00000000 l    d  .debug_str	00000000 .debug_str
00000000 l    d  .debug_loc	00000000 .debug_loc
00000000 l    d  .debug_alt_sim_info	00000000 .debug_alt_sim_info
00000000 l    d  .debug_ranges	00000000 .debug_ranges
00000000 l    df *ABS*	00000000 ../cpu1_bsp//obj/HAL/src/crt0.o
080001f0 l       .text	00000000 alt_after_alt_main
00000000 l    df *ABS*	00000000 alt_exception_entry.o
08000094 l       .exceptions	00000000 alt_exception_unknown
00000000 l    df *ABS*	00000000 alt_irq_handler.c
00000000 l    df *ABS*	00000000 FIFO.c
00000000 l    df *ABS*	00000000 main.c
00000000 l    df *ABS*	00000000 fp-bit.c
00000000 l    df *ABS*	00000000 fp-bit.c
00000000 l    df *ABS*	00000000 fp-bit.c
00000000 l    df *ABS*	00000000 fp-bit.c
00000000 l    df *ABS*	00000000 lib2-mul.c
00000000 l    df *ABS*	00000000 libgcc2.c
00000000 l    df *ABS*	00000000 fp-bit.c
00000000 l    df *ABS*	00000000 fp-bit.c
00000000 l    df *ABS*	00000000 libgcc2.c
00000000 l    df *ABS*	00000000 libgcc2.c
00000000 l    df *ABS*	00000000 libgcc2.c
00000000 l    df *ABS*	00000000 clock.c
00000000 l    df *ABS*	00000000 fclose.c
00000000 l    df *ABS*	00000000 fflush.c
00000000 l    df *ABS*	00000000 findfp.c
080022a4 l     F .text	00000008 __fp_lock
080022ac l     F .text	00000008 __fp_unlock
00000000 l    df *ABS*	00000000 fopen.c
00000000 l    df *ABS*	00000000 fprintf.c
00000000 l    df *ABS*	00000000 fread.c
00000000 l    df *ABS*	00000000 mallocr.c
00000000 l    df *ABS*	00000000 fscanf.c
00000000 l    df *ABS*	00000000 fseek.c
00000000 l    df *ABS*	00000000 fstatr.c
00000000 l    df *ABS*	00000000 fwalk.c
00000000 l    df *ABS*	00000000 fwrite.c
00000000 l    df *ABS*	00000000 impure.c
08014c00 l     O .rwdata	00000400 impure_data
00000000 l    df *ABS*	00000000 int_errno.c
00000000 l    df *ABS*	00000000 makebuf.c
00000000 l    df *ABS*	00000000 malloc.c
00000000 l    df *ABS*	00000000 mallocr.c
00000000 l    df *ABS*	00000000 memcpy.c
00000000 l    df *ABS*	00000000 memset.c
00000000 l    df *ABS*	00000000 openr.c
00000000 l    df *ABS*	00000000 printf.c
00000000 l    df *ABS*	00000000 putchar.c
00000000 l    df *ABS*	00000000 puts.c
00000000 l    df *ABS*	00000000 refill.c
0800425c l     F .text	0000001c lflush
00000000 l    df *ABS*	00000000 sbrkr.c
00000000 l    df *ABS*	00000000 stdio.c
00000000 l    df *ABS*	00000000 strcat.c
00000000 l    df *ABS*	00000000 strcpy.c
00000000 l    df *ABS*	00000000 strlen.c
00000000 l    df *ABS*	00000000 timesr.c
00000000 l    df *ABS*	00000000 vfprintf.c
080047c8 l     F .text	00000034 __sprint_r
08014732 l     O .rodata	00000010 blanks.3515
08014742 l     O .rodata	00000010 zeroes.3516
00000000 l    df *ABS*	00000000 vfscanf.c
0801475a l     O .rodata	00000022 basefix.3427
00000000 l    df *ABS*	00000000 writer.c
00000000 l    df *ABS*	00000000 wsetup.c
00000000 l    df *ABS*	00000000 closer.c
00000000 l    df *ABS*	00000000 ctype_.c
0801487d l     O .rodata	00000180 _ctype_b
00000000 l    df *ABS*	00000000 dtoa.c
08008068 l     F .text	0000023c quorem
00000000 l    df *ABS*	00000000 flags.c
00000000 l    df *ABS*	00000000 fvwrite.c
00000000 l    df *ABS*	00000000 isattyr.c
00000000 l    df *ABS*	00000000 iswspace.c
00000000 l    df *ABS*	00000000 locale.c
08014a20 l     O .rodata	00000030 lconv
00000000 l    df *ABS*	00000000 lseekr.c
00000000 l    df *ABS*	00000000 mbrtowc.c
00000000 l    df *ABS*	00000000 mbtowc_r.c
00000000 l    df *ABS*	00000000 memchr.c
00000000 l    df *ABS*	00000000 memmove.c
00000000 l    df *ABS*	00000000 mprec.c
08014b68 l     O .rodata	0000000c p05.2435
00000000 l    df *ABS*	00000000 putc.c
00000000 l    df *ABS*	00000000 readr.c
00000000 l    df *ABS*	00000000 mallocr.c
00000000 l    df *ABS*	00000000 s_isinfd.c
00000000 l    df *ABS*	00000000 s_isnand.c
00000000 l    df *ABS*	00000000 sccl.c
00000000 l    df *ABS*	00000000 sf_nan.c
00000000 l    df *ABS*	00000000 sprintf.c
00000000 l    df *ABS*	00000000 strcmp.c
00000000 l    df *ABS*	00000000 strtod.c
08015414 l     O .rwdata	00000014 fpi.2015
08014b84 l     O .rodata	00000028 tinytens
08015428 l     O .rwdata	00000014 fpinan.2051
00000000 l    df *ABS*	00000000 strtol.c
00000000 l    df *ABS*	00000000 strtoll_r.c
00000000 l    df *ABS*	00000000 strtoul.c
00000000 l    df *ABS*	00000000 strtoull_r.c
00000000 l    df *ABS*	00000000 ungetc.c
00000000 l    df *ABS*	00000000 wbuf.c
00000000 l    df *ABS*	00000000 mallocr.c
00000000 l    df *ABS*	00000000 gdtoa-gethex.c
0800e600 l     F .text	00000110 rshift
00000000 l    df *ABS*	00000000 gdtoa-hexnan.c
00000000 l    df *ABS*	00000000 libgcc2.c
00000000 l    df *ABS*	00000000 libgcc2.c
00000000 l    df *ABS*	00000000 libgcc2.c
00000000 l    df *ABS*	00000000 libgcc2.c
00000000 l    df *ABS*	00000000 fp-bit.c
00000000 l    df *ABS*	00000000 fp-bit.c
00000000 l    df *ABS*	00000000 fp-bit.c
00000000 l    df *ABS*	00000000 fp-bit.c
080100b4 l     F .text	00000354 _fpadd_parts
00000000 l    df *ABS*	00000000 fp-bit.c
00000000 l    df *ABS*	00000000 fp-bit.c
00000000 l    df *ABS*	00000000 fp-bit.c
00000000 l    df *ABS*	00000000 fp-bit.c
00000000 l    df *ABS*	00000000 fp-bit.c
00000000 l    df *ABS*	00000000 fp-bit.c
00000000 l    df *ABS*	00000000 fp-bit.c
00000000 l    df *ABS*	00000000 fp-bit.c
00000000 l    df *ABS*	00000000 fp-bit.c
00000000 l    df *ABS*	00000000 lib2-divmod.c
08010b0c l     F .text	00000074 udivmodsi4
00000000 l    df *ABS*	00000000 fp-bit.c
00000000 l    df *ABS*	00000000 fp-bit.c
00000000 l    df *ABS*	00000000 fp-bit.c
00000000 l    df *ABS*	00000000 fp-bit.c
00000000 l    df *ABS*	00000000 fp-bit.c
00000000 l    df *ABS*	00000000 alt_close.c
08010fe8 l     F .text	00000050 alt_get_errno
00000000 l    df *ABS*	00000000 alt_dev.c
08011104 l     F .text	0000002c alt_dev_null_write
00000000 l    df *ABS*	00000000 alt_errno.c
00000000 l    df *ABS*	00000000 alt_fstat.c
08011130 l     F .text	00000050 alt_get_errno
00000000 l    df *ABS*	00000000 alt_isatty.c
08011230 l     F .text	00000050 alt_get_errno
00000000 l    df *ABS*	00000000 alt_load.c
08011324 l     F .text	0000006c alt_load_section
00000000 l    df *ABS*	00000000 alt_lseek.c
08011410 l     F .text	00000050 alt_get_errno
00000000 l    df *ABS*	00000000 alt_main.c
00000000 l    df *ABS*	00000000 alt_malloc_lock.c
00000000 l    df *ABS*	00000000 alt_open.c
080115ec l     F .text	00000050 alt_get_errno
0801163c l     F .text	000000f0 alt_file_locked
00000000 l    df *ABS*	00000000 alt_read.c
08011884 l     F .text	00000050 alt_get_errno
00000000 l    df *ABS*	00000000 alt_release_fd.c
00000000 l    df *ABS*	00000000 alt_sbrk.c
0801669c l     O .rwdata	00000004 heap_end
00000000 l    df *ABS*	00000000 alt_times.c
08011af8 l     F .text	00000050 alt_get_errno
00000000 l    df *ABS*	00000000 alt_write.c
08011bcc l     F .text	00000050 alt_get_errno
00000000 l    df *ABS*	00000000 alt_sys_init.c
08011d0c l     F .text	00000038 alt_dev_reg
080155e4 l     O .rwdata	00001060 jtag_uart1
08016644 l     O .rwdata	00000028 altera_hostfs
00000000 l    df *ABS*	00000000 altera_avalon_fifo_util.c
00000000 l    df *ABS*	00000000 altera_avalon_jtag_uart_fd.c
00000000 l    df *ABS*	00000000 altera_avalon_jtag_uart_init.c
08012504 l     F .text	00000204 altera_avalon_jtag_uart_irq
08012708 l     F .text	000000a4 altera_avalon_jtag_uart_timeout
00000000 l    df *ABS*	00000000 altera_avalon_jtag_uart_ioctl.c
00000000 l    df *ABS*	00000000 altera_avalon_jtag_uart_read.c
00000000 l    df *ABS*	00000000 altera_avalon_jtag_uart_write.c
00000000 l    df *ABS*	00000000 altera_avalon_timer_sc.c
08012d44 l     F .text	00000074 alt_avalon_timer_sc_irq
00000000 l    df *ABS*	00000000 altera_hostfs.c
080166dc l     O .rwdata	00000004 hcinfo.2311
080166d0 l     O .rwdata	00000004 hcinfo.2324
080166c4 l     O .rwdata	00000004 hcinfo.2333
080166b8 l     O .rwdata	00000004 hcinfo.2346
080166ac l     O .rwdata	00000004 hcinfo.2359
080166a0 l     O .rwdata	00000004 hcinfo.2385
00000000 l    df *ABS*	00000000 alt_alarm_start.c
00000000 l    df *ABS*	00000000 alt_dcache_flush_all.c
00000000 l    df *ABS*	00000000 alt_dev_llist_insert.c
080135c4 l     F .text	00000050 alt_get_errno
00000000 l    df *ABS*	00000000 alt_do_ctors.c
00000000 l    df *ABS*	00000000 alt_do_dtors.c
00000000 l    df *ABS*	00000000 alt_find_dev.c
00000000 l    df *ABS*	00000000 alt_find_file.c
00000000 l    df *ABS*	00000000 alt_fs_reg.c
00000000 l    df *ABS*	00000000 alt_get_fd.c
00000000 l    df *ABS*	00000000 alt_icache_flush_all.c
00000000 l    df *ABS*	00000000 alt_iic.c
00000000 l    df *ABS*	00000000 alt_iic_isr_register.c
00000000 l    df *ABS*	00000000 alt_io_redirect.c
08013d4c l     F .text	000000e0 alt_open_fd
00000000 l    df *ABS*	00000000 alt_irq_vars.c
00000000 l    df *ABS*	00000000 alt_tick.c
00000000 l    df *ABS*	00000000 altera_nios2_qsys_irq.c
00000000 l    df *ABS*	00000000 atexit.c
00000000 l    df *ABS*	00000000 exit.c
00000000 l    df *ABS*	00000000 memcmp.c
00000000 l    df *ABS*	00000000 __atexit.c
00000000 l    df *ABS*	00000000 __call_atexit.c
00000000 l    df *ABS*	00000000 alt_exit.c
00000000 l    df *ABS*	00000000 
080041a8 g     F .text	0000001c putchar
0800b268 g     F .text	00000074 _mprec_log10
0800b358 g     F .text	00000084 __any_on
08009e3c g     F .text	00000064 _isatty_r
08014a50 g     O .rodata	00000028 __mprec_tinytens
08011534 g     F .text	00000078 alt_main
080046a0 g     F .text	00000094 strcpy
08001eac g     F .text	00000044 __ashldi3
080041c4 g     F .text	00000084 _puts_r
08018344 g     O .bss	00000100 alt_irq
08009fb4 g     F .text	0000006c _lseek_r
08012070 g     F .text	00000058 altera_avalon_fifo_write_almostfull
080166f4 g       *ABS*	00000000 __flash_rwdata_start
080098c0 g     F .text	00000098 __sflags
080107a0 g     F .text	0000005c __eqdf2
080185d4 g       *ABS*	00000000 __alt_heap_start
08004164 g     F .text	0000003c printf
080045a4 g     F .text	0000005c __sseek
08002348 g     F .text	0000010c __sinit
0800e3dc g     F .text	0000013c __swbuf_r
08009ed8 g     F .text	0000009c _setlocale_r
080022c0 g     F .text	00000078 __sfmoreglue
0800e3c0 g     F .text	0000001c ungetc
080115cc g     F .text	00000020 __malloc_unlock
08012e40 g     F .text	0000016c alt_hostfs_open
0800be88 g     F .text	00001548 _strtod_r
0800a200 g     F .text	0000018c memmove
08011df0 g     F .text	00000098 altera_avalon_fifo_init
08002338 g     F .text	00000010 _cleanup
08012120 g     F .text	00000058 altera_avalon_fifo_write_fifo
0800a38c g     F .text	000000a8 _Balloc
08010858 g     F .text	00000064 __gtdf2
00000000  w      *UND*	00000000 __errno
08000000 g     F .entry	0000000c __reset
08011b48 g     F .text	00000084 times
080122b8 g     F .text	00000028 altera_avalon_fifo_read_backpressure
08000020 g       *ABS*	00000000 __flash_exceptions_start
080032a4 g     F .text	00000068 _fstat_r
080181e8 g     O .bss	00000004 errno
08007d90 g     F .text	00000024 __svfscanf
08000000 g       *ABS*	00000000 __alt_mem_sdram_controller
08010dc0 g     F .text	0000002c __make_fp
08018208 g     O .bss	00000004 alt_argv
0801e66c g       *ABS*	00000000 _gp
08011fbc g     F .text	0000005c altera_avalon_fifo_clear_event
08002db0 g     F .text	0000003c fscanf
08015464 g     O .rwdata	00000180 alt_fd_list
08013188 g     F .text	000000b8 alt_hostfs_seek
080041a0 g     F .text	00000008 _putchar_r
0801376c g     F .text	00000090 alt_find_dev
08003eb0 g     F .text	00000140 memcpy
080047c0 g     F .text	00000008 _times_r
0800ef18 g     F .text	0000028c __hexnan
080022b4 g     F .text	0000000c _cleanup_r
0800187c g     F .text	000000d4 __floatsidf
08013910 g     F .text	00000084 alt_fs_reg
08013e2c g     F .text	00000078 alt_io_redirect
08010920 g     F .text	0000005c __ltdf2
08014434 g       *ABS*	00000000 __DTOR_END__
08004248 g     F .text	00000014 puts
0800a084 g     F .text	00000040 mbrtowc
08007d44 g     F .text	0000004c _vfscanf_r
0800b1c4 g     F .text	000000a4 __ratio
08012908 g     F .text	00000218 altera_avalon_jtag_uart_read
08003704 g     F .text	00000014 malloc
08004138 g     F .text	0000002c _printf_r
08010c2c g     F .text	00000008 __udivsi3
08011280 g     F .text	000000a4 isatty
08009ea0 g     F .text	00000038 iswspace
08014aa0 g     O .rodata	000000c8 __mprec_tens
08009f74 g     F .text	0000000c __locale_charset
0800f2b4 g     F .text	00000084 __fixunsdfsi
080181f4 g     O .bss	00000004 __malloc_top_pad
0800dd7c g     F .text	00000024 strtoul
08016680 g     O .rwdata	00000004 __mb_cur_max
08009f80 g     F .text	0000000c _localeconv_r
0800dda0 g     F .text	00000394 _strtoull_r
0800a7bc g     F .text	0000003c __i2b
08009958 g     F .text	000004e4 __sfvwrite_r
08004464 g     F .text	00000064 _sbrk_r
0800039c g     F .text	00000860 read_444_format
08013018 g     F .text	000000b8 alt_hostfs_read
0800b588 g     F .text	0000006c _read_r
08015408 g     O .rwdata	0000000c __lc_ctype
08016694 g     O .rwdata	00000004 alt_max_fd
08001d64 g     F .text	00000104 __unpack_d
08001f3c g     F .text	0000013c _fclose_r
08002274 g     F .text	00000030 fflush
080181f0 g     O .bss	00000004 __malloc_max_sbrked_mem
08010408 g     F .text	00000054 __adddf3
0800af38 g     F .text	00000148 __b2d
0800f988 g     F .text	00000628 __umoddi3
08011460 g     F .text	000000d4 lseek
0801666c g     O .rwdata	00000004 _global_impure_ptr
0800b5f4 g     F .text	000005fc _realloc_r
080185d4 g       *ABS*	00000000 __bss_end
08013c5c g     F .text	000000f0 alt_iic_isr_register
08013f3c g     F .text	00000104 alt_tick
08018244 g     O .bss	00000100 __hexdig
0800f338 g     F .text	00000650 __udivdi3
08014a78 g     O .rodata	00000028 __mprec_bigtens
0800a5a0 g     F .text	00000104 __s2b
08001950 g     F .text	0000011c __floatunsidf
0800acd8 g     F .text	00000058 __mcmp
0801667c g     O .rwdata	00000004 __ctype_ptr
08002560 g     F .text	00000018 __fp_lock_all
08013c10 g     F .text	0000004c alt_ic_irq_enabled
0800031c g     F .text	00000040 FIFO_INIT
08013ea4 g     F .text	00000098 alt_alarm_stop
0800d784 g     F .text	00000024 strtol
08018210 g     O .bss	00000004 alt_irq_active
08012fac g     F .text	0000006c alt_hostfs_close
080000ec g     F .exceptions	000000cc alt_irq_handler
0801543c g     O .rwdata	00000028 alt_dev_null
08010c3c g     F .text	000000c8 __unpack_f
080135a8 g     F .text	0000001c alt_dcache_flush_all
0800a6a4 g     F .text	00000068 __hi0bits
080109d8 g     F .text	000000d4 __fixdfsi
0800d3d0 g     F .text	0000001c strtod
08012018 g     F .text	00000058 altera_avalon_fifo_write_ienable
080166f4 g       *ABS*	00000000 __ram_rwdata_end
08011f2c g     F .text	0000002c altera_avalon_fifo_read_almostempty
0801668c g     O .rwdata	00000008 alt_dev_list
08011c1c g     F .text	000000f0 write
0800b3dc g     F .text	000000bc _putc_r
08010004 g     F .text	0000005c __gtsf2
08014c00 g       *ABS*	00000000 __ram_rodata_end
08011180 g     F .text	000000b0 fstat
08002704 g     F .text	00000024 fprintf
08001e68 g     F .text	00000044 __lshrdi3
0801097c g     F .text	0000005c __ledf2
08004608 g     F .text	00000098 strcat
0800aa50 g     F .text	0000012c __pow5mult
08018200 g     O .bss	00000004 __nlocale_changed
08010c34 g     F .text	00000008 __umodsi3
080185d4 g       *ABS*	00000000 end
08010ebc g     F .text	0000012c __pack_f
08003280 g     F .text	00000024 fseek
08012444 g     F .text	000000c0 altera_avalon_jtag_uart_init
08011f58 g     F .text	0000003c altera_avalon_fifo_read_event
08014434 g       *ABS*	00000000 __CTOR_LIST__
10000000 g       *ABS*	00000000 __alt_stack_pointer
08012db8 g     F .text	00000088 alt_avalon_timer_sc_init
08001a94 g     F .text	000000ac __clzsi2
08012b20 g     F .text	00000224 altera_avalon_jtag_uart_write
08002550 g     F .text	00000004 __sfp_lock_acquire
080121e4 g     F .text	0000004c altera_avalon_fifo_read_fifo
0800a108 g     F .text	000000f8 memchr
080047fc g     F .text	00001e7c ___vfprintf_internal_r
0800bd20 g     F .text	00000058 _sprintf_r
08002ae0 g     F .text	000002d0 _free_r
08014258 g     F .text	000001a0 __call_exitprocs
08000bfc g     F .text	00000100 print_grid
080181fc g     O .bss	00000004 __mlocale_changed
08016674 g     O .rwdata	00000004 __malloc_sbrk_base
080001b8 g     F .text	0000003c _start
08018214 g     O .bss	00000004 _alt_tick_rate
0800d7a8 g     F .text	00000330 _strtoll_r
08000eec g     F .text	00000520 encode_image
0800ab7c g     F .text	0000015c __lshift
08018218 g     O .bss	00000004 _alt_nticks
080118d4 g     F .text	000000f4 read
08011d78 g     F .text	00000078 alt_sys_init
080040cc g     F .text	0000006c _open_r
08014128 g     F .text	00000130 __register_exitproc
0800a7f8 g     F .text	00000258 __multiply
08000258 g     F .text	00000064 WRITE_FIFO_SUB
080127ac g     F .text	00000068 altera_avalon_jtag_uart_close
08001a6c g     F .text	00000028 __mulsi3
08014c00 g       *ABS*	00000000 __ram_rwdata_start
08014434 g       *ABS*	00000000 __ram_rodata_start
0801821c g     O .bss	00000028 __malloc_current_mallinfo
0800ffb0 g     F .text	00000054 __eqsf2
0800b080 g     F .text	00000144 __d2b
080122e0 g     F .text	00000060 altera_avalon_jtag_uart_read_fd
0800dad8 g     F .text	000002a4 _strtoul_r
08013994 g     F .text	000000d4 alt_get_fd
08010dec g     F .text	000000d0 __fpcmp_parts_d
08008004 g     F .text	00000064 _close_r
080140ac g     F .text	0000007c memcmp
080123a0 g     F .text	00000050 altera_avalon_jtag_uart_close_fd
080185d4 g       *ABS*	00000000 __alt_stack_base
080123f0 g     F .text	00000054 altera_avalon_jtag_uart_ioctl_fd
0800346c g     F .text	000000b0 _fwrite_r
08007e90 g     F .text	00000174 __swsetup_r
08011e88 g     F .text	0000003c altera_avalon_fifo_read_status
080016c8 g     F .text	000001b4 __divdf3
08002454 g     F .text	000000fc __sfp
0800b2dc g     F .text	0000007c __copybits
08015000 g     O .rwdata	00000408 __malloc_av_
0800255c g     F .text	00000004 __sinit_lock_release
080104bc g     F .text	000002e4 __muldf3
080044c8 g     F .text	00000054 __sread
08002964 g     F .text	00000040 fread
0801228c g     F .text	0000002c altera_avalon_fifo_read_other_info
080137fc g     F .text	00000114 alt_find_file
08013614 g     F .text	000000a0 alt_dev_llist_insert
080115ac g     F .text	00000020 __malloc_lock
080026dc g     F .text	00000028 _fprintf_r
08011a48 g     F .text	000000b0 sbrk
0800208c g     F .text	000001e8 _fflush_r
0800e534 g     F .text	000000cc _calloc_r
080026c0 g     F .text	0000001c fopen
080181e8 g       *ABS*	00000000 __bss_start
08002dec g     F .text	00000020 _fscanf_r
08003ff0 g     F .text	000000dc memset
0800140c g     F .text	000002bc main
0801820c g     O .bss	00000004 alt_envp
080181ec g     O .bss	00000004 __malloc_max_total_mem
08012340 g     F .text	00000060 altera_avalon_jtag_uart_write_fd
08011f94 g     F .text	00000028 altera_avalon_fifo_read_level
0800e518 g     F .text	0000001c __swbuf
08010060 g     F .text	00000054 __ltsf2
08002728 g     F .text	0000023c _fread_r
08004600 g     F .text	00000008 __sclose
10000000 g       *ABS*	00000000 __alt_heap_limit
08002078 g     F .text	00000014 fclose
0800d50c g     F .text	00000278 _strtol_r
08010aac g     F .text	00000060 __truncdfsf2
08018444 g     O .bss	00000190 _atexit0
080082a4 g     F .text	0000161c _dtoa_r
0800372c g     F .text	00000784 _malloc_r
08016698 g     O .rwdata	00000004 alt_errno
0800e134 g     F .text	000000f0 __submore
0800330c g     F .text	000000a8 _fwalk
0800a0c4 g     F .text	00000044 _mbtowc_r
0800b498 g     F .text	000000f0 putc
08010b80 g     F .text	00000050 __divsi3
080145d4 g     O .rodata	00000014 __thenan_df
080029a4 g     F .text	0000013c _malloc_trim_r
08014434 g       *ABS*	00000000 __CTOR_END__
0800bde4 g     F .text	000000a4 strcmp
08014434 g       *ABS*	00000000 __flash_rodata_start
08014434 g       *ABS*	00000000 __DTOR_LIST__
0800035c g     F .text	00000040 delay
080107fc g     F .text	0000005c __nedf2
08011d44 g     F .text	00000034 alt_irq_init
080119c8 g     F .text	00000080 alt_release_fd
0800bd78 g     F .text	0000006c sprintf
080145e8 g     O .rodata	00000100 __clz_tab
080181f8 g     O .bss	00000004 _PathLocale
0800d3ec g     F .text	00000120 strtof
08014060 g     F .text	00000014 atexit
08007e24 g     F .text	0000006c _write_r
08009f8c g     F .text	0000001c setlocale
0800bd18 g     F .text	00000008 nanf
08016670 g     O .rwdata	00000004 _impure_ptr
08018204 g     O .bss	00000004 alt_argc
0800a020 g     F .text	00000064 _mbrtowc_r
08013710 g     F .text	0000005c _do_dtors
08002e0c g     F .text	00000474 _fseek_r
080002bc g     F .text	00000060 READ_FIFO
08004278 g     F .text	000001ec __srefill_r
08000020 g       .exceptions	00000000 alt_irq_entry
0800aed8 g     F .text	00000060 __ulp
0800bbf0 g     F .text	00000038 __isinfd
08002578 g     F .text	00000018 __fp_unlock_all
08016684 g     O .rwdata	00000008 alt_fs_list
080130d0 g     F .text	000000b8 alt_hostfs_write
08000020 g       *ABS*	00000000 __ram_exceptions_start
08009fa8 g     F .text	0000000c localeconv
08012230 g     F .text	0000005c altera_avalon_fifo_write_other_info
08013a84 g     F .text	00000050 alt_ic_isr_register
0800351c g     F .text	00000040 fwrite
0800e710 g     F .text	00000090 __hexdig_init
080166f4 g       *ABS*	00000000 _edata
080185d4 g       *ABS*	00000000 _end
080001b8 g       *ABS*	00000000 __ram_exceptions_end
08007db4 g     F .text	00000070 vfscanf
08012814 g     F .text	000000f4 altera_avalon_jtag_uart_ioctl
08013b70 g     F .text	000000a0 alt_ic_irq_disable
0800451c g     F .text	00000088 __swrite
08016678 g     O .rwdata	00000004 __malloc_trim_threshold
08014040 g     F .text	00000020 altera_nios2_qsys_irq_init
08014074 g     F .text	00000038 exit
080033b4 g     F .text	000000b8 _fwalk_reent
0800ad30 g     F .text	000001a8 __mdiff
08010bd0 g     F .text	0000005c __modsi3
08011ec4 g     F .text	0000003c altera_avalon_fifo_read_ienable
10000000 g       *ABS*	00000000 __alt_data_end
08000020 g     F .exceptions	00000000 alt_exception
08002554 g     F .text	00000004 __sfp_lock_release
0800bc54 g     F .text	000000c4 __sccl
0801477c g     O .rodata	00000101 _ctype_
08010d04 g     F .text	000000bc __fpcmp_parts_f
08002590 g     F .text	00000130 _fopen_r
080143f8 g     F .text	0000003c _exit
0800bc28 g     F .text	0000002c __isnand
08013468 g     F .text	00000140 alt_alarm_start
0800f1a4 g     F .text	00000110 __muldi3
08011f00 g     F .text	0000002c altera_avalon_fifo_read_almostfull
0800355c g     F .text	000001a8 __smakebuf_r
08004734 g     F .text	0000008c strlen
0801172c g     F .text	00000158 open
08012178 g     F .text	0000006c altera_avalon_read_fifo
080108bc g     F .text	00000064 __gedf2
08000cfc g     F .text	000001f0 initialization
0800e7a0 g     F .text	00000778 __gethex
08001ef0 g     F .text	0000004c clock
08013a68 g     F .text	0000001c alt_icache_flush_all
080001f4 g     F .text	00000064 WRITE_FIFO
080166e8 g     O .rwdata	00000004 alt_priority_mask
08013ad4 g     F .text	0000009c alt_ic_irq_enable
08006678 g     F .text	00000024 __vfprintf_internal
0801045c g     F .text	00000060 __subdf3
0800a70c g     F .text	000000b0 __lo0bits
0800669c g     F .text	000016a8 __svfscanf_r
080120c8 g     F .text	00000058 altera_avalon_fifo_write_almostempty
080166ec g     O .rwdata	00000008 alt_alarm_list
0800e224 g     F .text	0000019c _ungetc_r
080136b4 g     F .text	0000005c _do_ctors
08011038 g     F .text	000000cc close
08011390 g     F .text	00000080 alt_load
08001b40 g     F .text	00000224 __pack_d
08003718 g     F .text	00000014 free
08002558 g     F .text	00000004 __sinit_lock_acquire
0800a45c g     F .text	00000144 __multadd
0800a434 g     F .text	00000028 _Bfree
08013240 g     F .text	00000228 alt_hostfs_fstat



Disassembly of section .entry:

08000000 <__reset>:
 * Jump to the _start entry point in the .text section if reset code
 * is allowed or if optimizing for RTL simulation.
 */
#if defined(ALT_ALLOW_CODE_AT_RESET) || defined(ALT_SIM_OPTIMIZE)
    /* Jump to the _start entry point in the .text section. */
    movhi r1, %hi(_start)
 8000000:	00420034 	movhi	at,2048
    ori r1, r1, %lo(_start)
 8000004:	08406e14 	ori	at,at,440
    jmp r1
 8000008:	0800683a 	jmp	at
	...

Disassembly of section .exceptions:

08000020 <alt_exception>:

#else /* ALT_EXCEPTION_STACK disabled */
        /* 
         * Reserve space on normal stack for registers about to be pushed.
         */
        addi  sp, sp, -76
 8000020:	deffed04 	addi	sp,sp,-76
         * documentation for details).
         *
         * Leave a gap in the stack frame at 4(sp) for the muldiv handler to
         * store zero into.
         */
        stw   ra,  0(sp)
 8000024:	dfc00015 	stw	ra,0(sp)
        stw   r1,   8(sp)
 8000028:	d8400215 	stw	at,8(sp)
        stw   r2,  12(sp)
 800002c:	d8800315 	stw	r2,12(sp)
        stw   r3,  16(sp)
 8000030:	d8c00415 	stw	r3,16(sp)
        stw   r4,  20(sp)
 8000034:	d9000515 	stw	r4,20(sp)
        stw   r5,  24(sp)
 8000038:	d9400615 	stw	r5,24(sp)
        stw   r6,  28(sp)
 800003c:	d9800715 	stw	r6,28(sp)
        stw   r7,  32(sp)
 8000040:	d9c00815 	stw	r7,32(sp)
        rdctl r5, estatus   /* Read early to avoid usage stall */
 8000044:	000b307a 	rdctl	r5,estatus
        stw   r8,  36(sp)
 8000048:	da000915 	stw	r8,36(sp)
        stw   r9,  40(sp)
 800004c:	da400a15 	stw	r9,40(sp)
        stw   r10, 44(sp)
 8000050:	da800b15 	stw	r10,44(sp)
        stw   r11, 48(sp)
 8000054:	dac00c15 	stw	r11,48(sp)
        stw   r12, 52(sp)
 8000058:	db000d15 	stw	r12,52(sp)
        stw   r13, 56(sp)
 800005c:	db400e15 	stw	r13,56(sp)
        stw   r14, 60(sp)
 8000060:	db800f15 	stw	r14,60(sp)
        stw   r15, 64(sp)
 8000064:	dbc01015 	stw	r15,64(sp)
        /*
         * ea-4 contains the address of the instruction being executed
         * when the exception occured. For interrupt exceptions, we will
         * will be re-issue the isntruction. Store it in 72(sp)
         */
        stw   r5,  68(sp)  /* estatus */
 8000068:	d9401115 	stw	r5,68(sp)
        addi  r15, ea, -4  /* instruction that caused exception */
 800006c:	ebffff04 	addi	r15,ea,-4
        stw   r15,  72(sp)
 8000070:	dbc01215 	stw	r15,72(sp)
#else
        /*
         * Test to see if the exception was a software exception or caused 
         * by an external interrupt, and vector accordingly.
         */
        rdctl r4, ipending
 8000074:	0009313a 	rdctl	r4,ipending
        andi  r2, r5, 1
 8000078:	2880004c 	andi	r2,r5,1
        beq   r2, zero, .Lnot_irq
 800007c:	10000326 	beq	r2,zero,800008c <alt_exception+0x6c>
        beq   r4, zero, .Lnot_irq
 8000080:	20000226 	beq	r4,zero,800008c <alt_exception+0x6c>
        /*
         * Now that all necessary registers have been preserved, call 
         * alt_irq_handler() to process the interrupts.
         */

        call alt_irq_handler
 8000084:	80000ec0 	call	80000ec <alt_irq_handler>

        .section .exceptions.irqreturn, "xa"

        br    .Lexception_exit
 8000088:	00000306 	br	8000098 <alt_exception_unknown+0x4>
         * upon completion, so we write ea (address of instruction *after*
         * the one where the exception occured) into 72(sp). The actual
         * instruction that caused the exception is written in r2, which these
         * handlers will utilize.
         */
        stw   ea,  72(sp)  /* Don't re-issue */
 800008c:	df401215 	stw	ea,72(sp)
        ldw   r2, -4(ea)   /* Instruction that caused exception */
 8000090:	e8bfff17 	ldw	r2,-4(ea)

08000094 <alt_exception_unknown>:
#ifdef NIOS2_HAS_DEBUG_STUB
       /*
        *  Either tell the user now (if there is a debugger attached) or go into
        *  the debug monitor which will loop until a debugger is attached.
        */
        break
 8000094:	003da03a 	break	0
        /* 
         * Restore the saved registers, so that all general purpose registers 
         * have been restored to their state at the time the interrupt occured.
         */

        ldw   r5,  68(sp)
 8000098:	d9401117 	ldw	r5,68(sp)
        ldw   ea,  72(sp)  /* This becomes the PC once eret is executed */
 800009c:	df401217 	ldw	ea,72(sp)
        ldw   ra,   0(sp)
 80000a0:	dfc00017 	ldw	ra,0(sp)

        wrctl estatus, r5
 80000a4:	2801707a 	wrctl	estatus,r5

        ldw   r1,   8(sp)
 80000a8:	d8400217 	ldw	at,8(sp)
        ldw   r2,  12(sp)
 80000ac:	d8800317 	ldw	r2,12(sp)
        ldw   r3,  16(sp)
 80000b0:	d8c00417 	ldw	r3,16(sp)
        ldw   r4,  20(sp)
 80000b4:	d9000517 	ldw	r4,20(sp)
        ldw   r5,  24(sp)
 80000b8:	d9400617 	ldw	r5,24(sp)
        ldw   r6,  28(sp)
 80000bc:	d9800717 	ldw	r6,28(sp)
        ldw   r7,  32(sp)
 80000c0:	d9c00817 	ldw	r7,32(sp)

#if defined(ALT_EXCEPTION_STACK) && defined(ALT_STACK_CHECK)
        ldw   et, %gprel(alt_exception_old_stack_limit)(gp)
#endif

        ldw   r8,  36(sp)
 80000c4:	da000917 	ldw	r8,36(sp)
        ldw   r9,  40(sp)
 80000c8:	da400a17 	ldw	r9,40(sp)
        ldw   r10, 44(sp)
 80000cc:	da800b17 	ldw	r10,44(sp)
        ldw   r11, 48(sp)
 80000d0:	dac00c17 	ldw	r11,48(sp)
        ldw   r12, 52(sp)
 80000d4:	db000d17 	ldw	r12,52(sp)
        ldw   r13, 56(sp)
 80000d8:	db400e17 	ldw	r13,56(sp)
        ldw   r14, 60(sp)
 80000dc:	db800f17 	ldw	r14,60(sp)
        ldw   r15, 64(sp)
 80000e0:	dbc01017 	ldw	r15,64(sp)
        stw   et, %gprel(alt_stack_limit_value)(gp)
        stw   zero, %gprel(alt_exception_old_stack_limit)(gp)
#endif /* ALT_STACK_CHECK */
        ldw   sp,  76(sp)
#else /* ALT_EXCEPTION_STACK disabled */
        addi  sp, sp, 76
 80000e4:	dec01304 	addi	sp,sp,76

        /*
         * Return to the interrupted instruction.
         */

        eret
 80000e8:	ef80083a 	eret

080000ec <alt_irq_handler>:
 * instruction is present if the macro ALT_CI_INTERRUPT_VECTOR defined.
 */

void alt_irq_handler (void) __attribute__ ((section (".exceptions")));
void alt_irq_handler (void)
{
 80000ec:	defff904 	addi	sp,sp,-28
 80000f0:	dfc00615 	stw	ra,24(sp)
 80000f4:	df000515 	stw	fp,20(sp)
 80000f8:	df000504 	addi	fp,sp,20
  
  /*
   * Notify the operating system that we are at interrupt level.
   */ 
  
  ALT_OS_INT_ENTER();
 80000fc:	0001883a 	nop
#ifndef NIOS2_EIC_PRESENT
static ALT_INLINE alt_u32 ALT_ALWAYS_INLINE alt_irq_pending (void)
{
  alt_u32 active;

  NIOS2_READ_IPENDING (active);
 8000100:	0005313a 	rdctl	r2,ipending
 8000104:	e0bffe15 	stw	r2,-8(fp)

  return active;
 8000108:	e0bffe17 	ldw	r2,-8(fp)
   * Consider the case where the high priority interupt is asserted during
   * the interrupt entry sequence for a lower priority interrupt to see why
   * this is the case.
   */

  active = alt_irq_pending ();
 800010c:	e0bffb15 	stw	r2,-20(fp)

  do
  {
    i = 0;
 8000110:	e03ffd15 	stw	zero,-12(fp)
    mask = 1;
 8000114:	00800044 	movi	r2,1
 8000118:	e0bffc15 	stw	r2,-16(fp)
     * called to clear the interrupt condition.
     */

    do
    {
      if (active & mask)
 800011c:	e0fffb17 	ldw	r3,-20(fp)
 8000120:	e0bffc17 	ldw	r2,-16(fp)
 8000124:	1884703a 	and	r2,r3,r2
 8000128:	10001726 	beq	r2,zero,8000188 <alt_irq_handler+0x9c>
      { 
#ifdef ALT_ENHANCED_INTERRUPT_API_PRESENT
        alt_irq[i].handler(alt_irq[i].context); 
 800012c:	00c200b4 	movhi	r3,2050
 8000130:	18e0d104 	addi	r3,r3,-31932
 8000134:	e0bffd17 	ldw	r2,-12(fp)
 8000138:	100490fa 	slli	r2,r2,3
 800013c:	1885883a 	add	r2,r3,r2
 8000140:	10c00017 	ldw	r3,0(r2)
 8000144:	010200b4 	movhi	r4,2050
 8000148:	2120d104 	addi	r4,r4,-31932
 800014c:	e0bffd17 	ldw	r2,-12(fp)
 8000150:	100490fa 	slli	r2,r2,3
 8000154:	2085883a 	add	r2,r4,r2
 8000158:	10800104 	addi	r2,r2,4
 800015c:	10800017 	ldw	r2,0(r2)
 8000160:	1009883a 	mov	r4,r2
 8000164:	183ee83a 	callr	r3
#else
        alt_irq[i].handler(alt_irq[i].context, i); 
#endif
        break;
 8000168:	0001883a 	nop
#ifndef NIOS2_EIC_PRESENT
static ALT_INLINE alt_u32 ALT_ALWAYS_INLINE alt_irq_pending (void)
{
  alt_u32 active;

  NIOS2_READ_IPENDING (active);
 800016c:	0005313a 	rdctl	r2,ipending
 8000170:	e0bfff15 	stw	r2,-4(fp)

  return active;
 8000174:	e0bfff17 	ldw	r2,-4(fp)
      mask <<= 1;
      i++;

    } while (1);

    active = alt_irq_pending ();
 8000178:	e0bffb15 	stw	r2,-20(fp)
    
  } while (active);
 800017c:	e0bffb17 	ldw	r2,-20(fp)
 8000180:	103fe31e 	bne	r2,zero,8000110 <alt_irq_handler+0x24>

  /*
   * Notify the operating system that interrupt processing is complete.
   */ 

  ALT_OS_INT_EXIT();
 8000184:	00000706 	br	80001a4 <alt_irq_handler+0xb8>
#else
        alt_irq[i].handler(alt_irq[i].context, i); 
#endif
        break;
      }
      mask <<= 1;
 8000188:	e0bffc17 	ldw	r2,-16(fp)
 800018c:	1085883a 	add	r2,r2,r2
 8000190:	e0bffc15 	stw	r2,-16(fp)
      i++;
 8000194:	e0bffd17 	ldw	r2,-12(fp)
 8000198:	10800044 	addi	r2,r2,1
 800019c:	e0bffd15 	stw	r2,-12(fp)

    } while (1);
 80001a0:	003fde06 	br	800011c <alt_irq_handler+0x30>
  /*
   * Notify the operating system that interrupt processing is complete.
   */ 

  ALT_OS_INT_EXIT();
}
 80001a4:	e037883a 	mov	sp,fp
 80001a8:	dfc00117 	ldw	ra,4(sp)
 80001ac:	df000017 	ldw	fp,0(sp)
 80001b0:	dec00204 	addi	sp,sp,8
 80001b4:	f800283a 	ret

Disassembly of section .text:

080001b8 <_start>:

    /*
     * Now that the caches are initialized, set up the stack pointer and global pointer.
     * The values provided by the linker are assumed to be correctly aligned.
     */
    movhi sp, %hi(__alt_stack_pointer)
 80001b8:	06c40034 	movhi	sp,4096
    ori sp, sp, %lo(__alt_stack_pointer)
 80001bc:	dec00014 	ori	sp,sp,0
    movhi gp, %hi(_gp)
 80001c0:	06820074 	movhi	gp,2049
    ori gp, gp, %lo(_gp)
 80001c4:	d6b99b14 	ori	gp,gp,58988
 */
#ifndef ALT_SIM_OPTIMIZE
    /* Log that the BSS is about to be cleared. */
    ALT_LOG_PUTS(alt_log_msg_bss)

    movhi r2, %hi(__bss_start)
 80001c8:	00820074 	movhi	r2,2049
    ori r2, r2, %lo(__bss_start)
 80001cc:	10a07a14 	ori	r2,r2,33256

    movhi r3, %hi(__bss_end)
 80001d0:	00c20074 	movhi	r3,2049
    ori r3, r3, %lo(__bss_end)
 80001d4:	18e17514 	ori	r3,r3,34260

    beq r2, r3, 1f
 80001d8:	10c00326 	beq	r2,r3,80001e8 <_start+0x30>

0:
    stw zero, (r2)
 80001dc:	10000015 	stw	zero,0(r2)
    addi r2, r2, 4
 80001e0:	10800104 	addi	r2,r2,4
    bltu r2, r3, 0b
 80001e4:	10fffd36 	bltu	r2,r3,80001dc <_start+0x24>
     * section aren't defined until alt_load() has been called).
     */
    mov   et, zero
#endif

    call alt_load
 80001e8:	80113900 	call	8011390 <alt_load>

    /* Log that alt_main is about to be called. */
    ALT_LOG_PUTS(alt_log_msg_alt_main)

    /* Call the C entry point. It should never return. */
    call alt_main
 80001ec:	80115340 	call	8011534 <alt_main>

080001f0 <alt_after_alt_main>:

    /* Wait in infinite loop in case alt_main does return. */
alt_after_alt_main:
    br alt_after_alt_main
 80001f0:	003fff06 	br	80001f0 <alt_after_alt_main>

080001f4 <WRITE_FIFO>:
 */

#include "FIFO.h"

void WRITE_FIFO(int *buffer, int inBase, int controllBase)
{
 80001f4:	defffb04 	addi	sp,sp,-20
 80001f8:	dfc00415 	stw	ra,16(sp)
 80001fc:	df000315 	stw	fp,12(sp)
 8000200:	df000304 	addi	fp,sp,12
 8000204:	e13ffd15 	stw	r4,-12(fp)
 8000208:	e17ffe15 	stw	r5,-8(fp)
 800020c:	e1bfff15 	stw	r6,-4(fp)

	// printf("Sending\n");
	// printf("Count - %d, ", altera_avalon_fifo_read_level(controllBase));

	// Check if FIFO is full before writing
	while (altera_avalon_fifo_read_level(controllBase) > ALMOST_FULL - 1)
 8000210:	0001883a 	nop
 8000214:	e0bfff17 	ldw	r2,-4(fp)
 8000218:	1009883a 	mov	r4,r2
 800021c:	8011f940 	call	8011f94 <altera_avalon_fifo_read_level>
 8000220:	10800208 	cmpgei	r2,r2,8
 8000224:	103ffb1e 	bne	r2,zero,8000214 <WRITE_FIFO+0x20>
	{
	}

	// Write data to FIFO
	altera_avalon_fifo_write_fifo(inBase, controllBase, *buffer);
 8000228:	e13ffe17 	ldw	r4,-8(fp)
 800022c:	e0ffff17 	ldw	r3,-4(fp)
 8000230:	e0bffd17 	ldw	r2,-12(fp)
 8000234:	10800017 	ldw	r2,0(r2)
 8000238:	180b883a 	mov	r5,r3
 800023c:	100d883a 	mov	r6,r2
 8000240:	80121200 	call	8012120 <altera_avalon_fifo_write_fifo>
}
 8000244:	e037883a 	mov	sp,fp
 8000248:	dfc00117 	ldw	ra,4(sp)
 800024c:	df000017 	ldw	fp,0(sp)
 8000250:	dec00204 	addi	sp,sp,8
 8000254:	f800283a 	ret

08000258 <WRITE_FIFO_SUB>:

void WRITE_FIFO_SUB(int *buffer, int inBase, int controllBase)
{
 8000258:	defffb04 	addi	sp,sp,-20
 800025c:	dfc00415 	stw	ra,16(sp)
 8000260:	df000315 	stw	fp,12(sp)
 8000264:	df000304 	addi	fp,sp,12
 8000268:	e13ffd15 	stw	r4,-12(fp)
 800026c:	e17ffe15 	stw	r5,-8(fp)
 8000270:	e1bfff15 	stw	r6,-4(fp)

	// printf("Sending\n");
	// printf("Count - %d, ", altera_avalon_fifo_read_level(controllBase));

	// Check if FIFO is full before writing
	while (altera_avalon_fifo_read_level(controllBase) > 63)
 8000274:	0001883a 	nop
 8000278:	e0bfff17 	ldw	r2,-4(fp)
 800027c:	1009883a 	mov	r4,r2
 8000280:	8011f940 	call	8011f94 <altera_avalon_fifo_read_level>
 8000284:	10801008 	cmpgei	r2,r2,64
 8000288:	103ffb1e 	bne	r2,zero,8000278 <WRITE_FIFO_SUB+0x20>
	{
	}

	// Write data to FIFO
	altera_avalon_fifo_write_fifo(inBase, controllBase, *buffer);
 800028c:	e13ffe17 	ldw	r4,-8(fp)
 8000290:	e0ffff17 	ldw	r3,-4(fp)
 8000294:	e0bffd17 	ldw	r2,-12(fp)
 8000298:	10800017 	ldw	r2,0(r2)
 800029c:	180b883a 	mov	r5,r3
 80002a0:	100d883a 	mov	r6,r2
 80002a4:	80121200 	call	8012120 <altera_avalon_fifo_write_fifo>
}
 80002a8:	e037883a 	mov	sp,fp
 80002ac:	dfc00117 	ldw	ra,4(sp)
 80002b0:	df000017 	ldw	fp,0(sp)
 80002b4:	dec00204 	addi	sp,sp,8
 80002b8:	f800283a 	ret

080002bc <READ_FIFO>:

void READ_FIFO(int *buffer, int outBase, int controllBase)
{
 80002bc:	defffb04 	addi	sp,sp,-20
 80002c0:	dfc00415 	stw	ra,16(sp)
 80002c4:	df000315 	stw	fp,12(sp)
 80002c8:	df000304 	addi	fp,sp,12
 80002cc:	e13ffd15 	stw	r4,-12(fp)
 80002d0:	e17ffe15 	stw	r5,-8(fp)
 80002d4:	e1bfff15 	stw	r6,-4(fp)
	// Wait if the FIFO is empty
	// while (altera_avalon_fifo_read_status(FIFO_MEM_IN_CSR_BASE, ALTERA_AVALON_FIFO_STATUS_EMPTY))
	// 	;

	while (altera_avalon_fifo_read_level(controllBase) == ALMOST_EMTY)
 80002d8:	0001883a 	nop
 80002dc:	e0bfff17 	ldw	r2,-4(fp)
 80002e0:	1009883a 	mov	r4,r2
 80002e4:	8011f940 	call	8011f94 <altera_avalon_fifo_read_level>
 80002e8:	103ffc26 	beq	r2,zero,80002dc <READ_FIFO+0x20>
	{
	}

	// Read the data
	*buffer = altera_avalon_fifo_read_fifo(outBase, controllBase);
 80002ec:	e0fffe17 	ldw	r3,-8(fp)
 80002f0:	e0bfff17 	ldw	r2,-4(fp)
 80002f4:	1809883a 	mov	r4,r3
 80002f8:	100b883a 	mov	r5,r2
 80002fc:	80121e40 	call	80121e4 <altera_avalon_fifo_read_fifo>
 8000300:	e0fffd17 	ldw	r3,-12(fp)
 8000304:	18800015 	stw	r2,0(r3)
}
 8000308:	e037883a 	mov	sp,fp
 800030c:	dfc00117 	ldw	ra,4(sp)
 8000310:	df000017 	ldw	fp,0(sp)
 8000314:	dec00204 	addi	sp,sp,8
 8000318:	f800283a 	ret

0800031c <FIFO_INIT>:

// Initialization
void FIFO_INIT(int controllBase)
{
 800031c:	defffd04 	addi	sp,sp,-12
 8000320:	dfc00215 	stw	ra,8(sp)
 8000324:	df000115 	stw	fp,4(sp)
 8000328:	df000104 	addi	fp,sp,4
 800032c:	e13fff15 	stw	r4,-4(fp)
	altera_avalon_fifo_init(controllBase,
 8000330:	e0bfff17 	ldw	r2,-4(fp)
 8000334:	1009883a 	mov	r4,r2
 8000338:	000b883a 	mov	r5,zero
 800033c:	000d883a 	mov	r6,zero
 8000340:	01c00204 	movi	r7,8
 8000344:	8011df00 	call	8011df0 <altera_avalon_fifo_init>
							0,
							ALMOST_EMTY,  // Almost empty threshold
							ALMOST_FULL); // Almost full threshold
 8000348:	e037883a 	mov	sp,fp
 800034c:	dfc00117 	ldw	ra,4(sp)
 8000350:	df000017 	ldw	fp,0(sp)
 8000354:	dec00204 	addi	sp,sp,8
 8000358:	f800283a 	ret

0800035c <delay>:

#ifndef READYUV_H
#define READYUV_H

void delay(int n)
{
 800035c:	defffd04 	addi	sp,sp,-12
 8000360:	df000215 	stw	fp,8(sp)
 8000364:	df000204 	addi	fp,sp,8
 8000368:	e13fff15 	stw	r4,-4(fp)
	int i;
	for (i = n; i > 0; i--)
 800036c:	e0bfff17 	ldw	r2,-4(fp)
 8000370:	e0bffe15 	stw	r2,-8(fp)
 8000374:	00000306 	br	8000384 <delay+0x28>
 8000378:	e0bffe17 	ldw	r2,-8(fp)
 800037c:	10bfffc4 	addi	r2,r2,-1
 8000380:	e0bffe15 	stw	r2,-8(fp)
 8000384:	e0bffe17 	ldw	r2,-8(fp)
 8000388:	00bffb16 	blt	zero,r2,8000378 <delay+0x1c>
	{
		continue;
	}
}
 800038c:	e037883a 	mov	sp,fp
 8000390:	df000017 	ldw	fp,0(sp)
 8000394:	dec00104 	addi	sp,sp,4
 8000398:	f800283a 	ret

0800039c <read_444_format>:
	UINT16 offset;

} JPEG_ENCODER_STRUCTURE;

void read_444_format(JPEG_ENCODER_STRUCTURE *jpeg_encoder_structure, UINT8 *input_ptr)
{
 800039c:	defff304 	addi	sp,sp,-52
 80003a0:	dfc00c15 	stw	ra,48(sp)
 80003a4:	df000b15 	stw	fp,44(sp)
 80003a8:	dc000a15 	stw	r16,40(sp)
 80003ac:	df000a04 	addi	fp,sp,40
 80003b0:	e13ffe15 	stw	r4,-8(fp)
 80003b4:	e17fff15 	stw	r5,-4(fp)
	INT32 i, j;

	UINT8 R, G, B;
	INT32 Y, Cb, Cr;

	UINT16 rows = jpeg_encoder_structure->rows;
 80003b8:	e0bffe17 	ldw	r2,-8(fp)
 80003bc:	1080030b 	ldhu	r2,12(r2)
 80003c0:	e0bff80d 	sth	r2,-32(fp)
	UINT16 cols = jpeg_encoder_structure->cols;
 80003c4:	e0bffe17 	ldw	r2,-8(fp)
 80003c8:	1080038b 	ldhu	r2,14(r2)
 80003cc:	e0bff88d 	sth	r2,-30(fp)
	UINT16 incr = jpeg_encoder_structure->incr;
 80003d0:	e0bffe17 	ldw	r2,-8(fp)
 80003d4:	1080050b 	ldhu	r2,20(r2)
 80003d8:	e0bff90d 	sth	r2,-28(fp)

	for (i = rows; i > 0; i--)
 80003dc:	e0bff80b 	ldhu	r2,-32(fp)
 80003e0:	e0bff615 	stw	r2,-40(fp)
 80003e4:	0000f606 	br	80007c0 <read_444_format+0x424>
	{
		// Print a new line for each row
		// printf("\nRow %d: ", rows - i + 1);
		for (j = cols; j > 0; j--)
 80003e8:	e0bff88b 	ldhu	r2,-30(fp)
 80003ec:	e0bff715 	stw	r2,-36(fp)
 80003f0:	00007506 	br	80005c8 <read_444_format+0x22c>
		{
			R = *input_ptr++;
 80003f4:	e0bfff17 	ldw	r2,-4(fp)
 80003f8:	10800003 	ldbu	r2,0(r2)
 80003fc:	e0bff985 	stb	r2,-26(fp)
 8000400:	e0bfff17 	ldw	r2,-4(fp)
 8000404:	10800044 	addi	r2,r2,1
 8000408:	e0bfff15 	stw	r2,-4(fp)
			G = *input_ptr++;
 800040c:	e0bfff17 	ldw	r2,-4(fp)
 8000410:	10800003 	ldbu	r2,0(r2)
 8000414:	e0bff9c5 	stb	r2,-25(fp)
 8000418:	e0bfff17 	ldw	r2,-4(fp)
 800041c:	10800044 	addi	r2,r2,1
 8000420:	e0bfff15 	stw	r2,-4(fp)
			B = *input_ptr++;
 8000424:	e0bfff17 	ldw	r2,-4(fp)
 8000428:	10800003 	ldbu	r2,0(r2)
 800042c:	e0bffa05 	stb	r2,-24(fp)
 8000430:	e0bfff17 	ldw	r2,-4(fp)
 8000434:	10800044 	addi	r2,r2,1
 8000438:	e0bfff15 	stw	r2,-4(fp)

			// Print the RGB values
			// printf("(%3d, %3d, %3d) ", R, G, B);

			Y = ((77 * R + 150 * G + 29 * B) >> 8);
 800043c:	e0bff983 	ldbu	r2,-26(fp)
 8000440:	1009883a 	mov	r4,r2
 8000444:	01401344 	movi	r5,77
 8000448:	8001a6c0 	call	8001a6c <__mulsi3>
 800044c:	1021883a 	mov	r16,r2
 8000450:	e0bff9c3 	ldbu	r2,-25(fp)
 8000454:	1009883a 	mov	r4,r2
 8000458:	01402584 	movi	r5,150
 800045c:	8001a6c0 	call	8001a6c <__mulsi3>
 8000460:	80a1883a 	add	r16,r16,r2
 8000464:	e0bffa03 	ldbu	r2,-24(fp)
 8000468:	1009883a 	mov	r4,r2
 800046c:	01400744 	movi	r5,29
 8000470:	8001a6c0 	call	8001a6c <__mulsi3>
 8000474:	8085883a 	add	r2,r16,r2
 8000478:	1005d23a 	srai	r2,r2,8
 800047c:	e0bffb15 	stw	r2,-20(fp)
			Cb = ((-43 * R - 85 * G + 128 * B) >> 8) + 128;
 8000480:	e0bff983 	ldbu	r2,-26(fp)
 8000484:	1009883a 	mov	r4,r2
 8000488:	017ff544 	movi	r5,-43
 800048c:	8001a6c0 	call	8001a6c <__mulsi3>
 8000490:	1021883a 	mov	r16,r2
 8000494:	e0bff9c3 	ldbu	r2,-25(fp)
 8000498:	1009883a 	mov	r4,r2
 800049c:	017feac4 	movi	r5,-85
 80004a0:	8001a6c0 	call	8001a6c <__mulsi3>
 80004a4:	8087883a 	add	r3,r16,r2
 80004a8:	e0bffa03 	ldbu	r2,-24(fp)
 80004ac:	100491fa 	slli	r2,r2,7
 80004b0:	1885883a 	add	r2,r3,r2
 80004b4:	1005d23a 	srai	r2,r2,8
 80004b8:	10802004 	addi	r2,r2,128
 80004bc:	e0bffc15 	stw	r2,-16(fp)
			Cr = ((128 * R - 107 * G - 21 * B) >> 8) + 128;
 80004c0:	e0bff983 	ldbu	r2,-26(fp)
 80004c4:	102091fa 	slli	r16,r2,7
 80004c8:	e0bff9c3 	ldbu	r2,-25(fp)
 80004cc:	1009883a 	mov	r4,r2
 80004d0:	017fe544 	movi	r5,-107
 80004d4:	8001a6c0 	call	8001a6c <__mulsi3>
 80004d8:	80a1883a 	add	r16,r16,r2
 80004dc:	e0bffa03 	ldbu	r2,-24(fp)
 80004e0:	1009883a 	mov	r4,r2
 80004e4:	017ffac4 	movi	r5,-21
 80004e8:	8001a6c0 	call	8001a6c <__mulsi3>
 80004ec:	8085883a 	add	r2,r16,r2
 80004f0:	1005d23a 	srai	r2,r2,8
 80004f4:	10802004 	addi	r2,r2,128
 80004f8:	e0bffd15 	stw	r2,-12(fp)

			if (Y < 0)
 80004fc:	e0bffb17 	ldw	r2,-20(fp)
 8000500:	1000020e 	bge	r2,zero,800050c <read_444_format+0x170>
				Y = 0;
 8000504:	e03ffb15 	stw	zero,-20(fp)
 8000508:	00000506 	br	8000520 <read_444_format+0x184>
			else if (Y > 255)
 800050c:	e0bffb17 	ldw	r2,-20(fp)
 8000510:	10804010 	cmplti	r2,r2,256
 8000514:	1000021e 	bne	r2,zero,8000520 <read_444_format+0x184>
				Y = 255;
 8000518:	00803fc4 	movi	r2,255
 800051c:	e0bffb15 	stw	r2,-20(fp)

			if (Cb < 0)
 8000520:	e0bffc17 	ldw	r2,-16(fp)
 8000524:	1000020e 	bge	r2,zero,8000530 <read_444_format+0x194>
				Cb = 0;
 8000528:	e03ffc15 	stw	zero,-16(fp)
 800052c:	00000506 	br	8000544 <read_444_format+0x1a8>
			else if (Cb > 255)
 8000530:	e0bffc17 	ldw	r2,-16(fp)
 8000534:	10804010 	cmplti	r2,r2,256
 8000538:	1000021e 	bne	r2,zero,8000544 <read_444_format+0x1a8>
				Cb = 255;
 800053c:	00803fc4 	movi	r2,255
 8000540:	e0bffc15 	stw	r2,-16(fp)

			if (Cr < 0)
 8000544:	e0bffd17 	ldw	r2,-12(fp)
 8000548:	1000020e 	bge	r2,zero,8000554 <read_444_format+0x1b8>
				Cr = 0;
 800054c:	e03ffd15 	stw	zero,-12(fp)
 8000550:	00000506 	br	8000568 <read_444_format+0x1cc>
			else if (Cr > 255)
 8000554:	e0bffd17 	ldw	r2,-12(fp)
 8000558:	10804010 	cmplti	r2,r2,256
 800055c:	1000021e 	bne	r2,zero,8000568 <read_444_format+0x1cc>
				Cr = 255;
 8000560:	00803fc4 	movi	r2,255
 8000564:	e0bffd15 	stw	r2,-12(fp)

			// printf("(%3d, %3d, %3d) ", Y, Cb, Cr);

			// Send into fifo
			WRITE_FIFO_SUB(&Y, IN_BASE_1to2A, CONTROL_BASE_1to2A);
 8000568:	e0bffb04 	addi	r2,fp,-20
 800056c:	1009883a 	mov	r4,r2
 8000570:	01440034 	movhi	r5,4096
 8000574:	29444204 	addi	r5,r5,4360
 8000578:	01840034 	movhi	r6,4096
 800057c:	31841004 	addi	r6,r6,4160
 8000580:	80002580 	call	8000258 <WRITE_FIFO_SUB>
			WRITE_FIFO_SUB(&Cb, IN_BASE_1to2B, CONTROL_BASE_1to2B);
 8000584:	e0bffc04 	addi	r2,fp,-16
 8000588:	1009883a 	mov	r4,r2
 800058c:	01440034 	movhi	r5,4096
 8000590:	29444104 	addi	r5,r5,4356
 8000594:	01840034 	movhi	r6,4096
 8000598:	31840804 	addi	r6,r6,4128
 800059c:	80002580 	call	8000258 <WRITE_FIFO_SUB>
			WRITE_FIFO_SUB(&Cr, IN_BASE_1to2C, CONTROL_BASE_1to2C);
 80005a0:	e0bffd04 	addi	r2,fp,-12
 80005a4:	1009883a 	mov	r4,r2
 80005a8:	01440034 	movhi	r5,4096
 80005ac:	29444004 	addi	r5,r5,4352
 80005b0:	01840034 	movhi	r6,4096
 80005b4:	31840004 	addi	r6,r6,4096
 80005b8:	80002580 	call	8000258 <WRITE_FIFO_SUB>

	for (i = rows; i > 0; i--)
	{
		// Print a new line for each row
		// printf("\nRow %d: ", rows - i + 1);
		for (j = cols; j > 0; j--)
 80005bc:	e0bff717 	ldw	r2,-36(fp)
 80005c0:	10bfffc4 	addi	r2,r2,-1
 80005c4:	e0bff715 	stw	r2,-36(fp)
 80005c8:	e0bff717 	ldw	r2,-36(fp)
 80005cc:	00bf8916 	blt	zero,r2,80003f4 <read_444_format+0x58>
			WRITE_FIFO_SUB(&Y, IN_BASE_1to2A, CONTROL_BASE_1to2A);
			WRITE_FIFO_SUB(&Cb, IN_BASE_1to2B, CONTROL_BASE_1to2B);
			WRITE_FIFO_SUB(&Cr, IN_BASE_1to2C, CONTROL_BASE_1to2C);
		}

		if ((j = (8 - cols)) > 0)
 80005d0:	e0bff88b 	ldhu	r2,-30(fp)
 80005d4:	00c00204 	movi	r3,8
 80005d8:	1885c83a 	sub	r2,r3,r2
 80005dc:	e0bff715 	stw	r2,-36(fp)
 80005e0:	e0bff717 	ldw	r2,-36(fp)
 80005e4:	00806f0e 	bge	zero,r2,80007a4 <read_444_format+0x408>
		{
			R = *(input_ptr - 3);
 80005e8:	e0bfff17 	ldw	r2,-4(fp)
 80005ec:	10bfff43 	ldbu	r2,-3(r2)
 80005f0:	e0bff985 	stb	r2,-26(fp)
			G = *(input_ptr - 2);
 80005f4:	e0bfff17 	ldw	r2,-4(fp)
 80005f8:	10bfff83 	ldbu	r2,-2(r2)
 80005fc:	e0bff9c5 	stb	r2,-25(fp)
			B = *(input_ptr - 1);
 8000600:	e0bfff17 	ldw	r2,-4(fp)
 8000604:	10bfffc3 	ldbu	r2,-1(r2)
 8000608:	e0bffa05 	stb	r2,-24(fp)

			// Print the RGB values
			// printf("(%3d, %3d, %3d) ", R, G, B);

			Y = ((77 * R + 150 * G + 29 * B) >> 8);
 800060c:	e0bff983 	ldbu	r2,-26(fp)
 8000610:	1009883a 	mov	r4,r2
 8000614:	01401344 	movi	r5,77
 8000618:	8001a6c0 	call	8001a6c <__mulsi3>
 800061c:	1021883a 	mov	r16,r2
 8000620:	e0bff9c3 	ldbu	r2,-25(fp)
 8000624:	1009883a 	mov	r4,r2
 8000628:	01402584 	movi	r5,150
 800062c:	8001a6c0 	call	8001a6c <__mulsi3>
 8000630:	80a1883a 	add	r16,r16,r2
 8000634:	e0bffa03 	ldbu	r2,-24(fp)
 8000638:	1009883a 	mov	r4,r2
 800063c:	01400744 	movi	r5,29
 8000640:	8001a6c0 	call	8001a6c <__mulsi3>
 8000644:	8085883a 	add	r2,r16,r2
 8000648:	1005d23a 	srai	r2,r2,8
 800064c:	e0bffb15 	stw	r2,-20(fp)
			Cb = ((-43 * R - 85 * G + 128 * B) >> 8) + 128;
 8000650:	e0bff983 	ldbu	r2,-26(fp)
 8000654:	1009883a 	mov	r4,r2
 8000658:	017ff544 	movi	r5,-43
 800065c:	8001a6c0 	call	8001a6c <__mulsi3>
 8000660:	1021883a 	mov	r16,r2
 8000664:	e0bff9c3 	ldbu	r2,-25(fp)
 8000668:	1009883a 	mov	r4,r2
 800066c:	017feac4 	movi	r5,-85
 8000670:	8001a6c0 	call	8001a6c <__mulsi3>
 8000674:	8087883a 	add	r3,r16,r2
 8000678:	e0bffa03 	ldbu	r2,-24(fp)
 800067c:	100491fa 	slli	r2,r2,7
 8000680:	1885883a 	add	r2,r3,r2
 8000684:	1005d23a 	srai	r2,r2,8
 8000688:	10802004 	addi	r2,r2,128
 800068c:	e0bffc15 	stw	r2,-16(fp)
			Cr = ((128 * R - 107 * G - 21 * B) >> 8) + 128;
 8000690:	e0bff983 	ldbu	r2,-26(fp)
 8000694:	102091fa 	slli	r16,r2,7
 8000698:	e0bff9c3 	ldbu	r2,-25(fp)
 800069c:	1009883a 	mov	r4,r2
 80006a0:	017fe544 	movi	r5,-107
 80006a4:	8001a6c0 	call	8001a6c <__mulsi3>
 80006a8:	80a1883a 	add	r16,r16,r2
 80006ac:	e0bffa03 	ldbu	r2,-24(fp)
 80006b0:	1009883a 	mov	r4,r2
 80006b4:	017ffac4 	movi	r5,-21
 80006b8:	8001a6c0 	call	8001a6c <__mulsi3>
 80006bc:	8085883a 	add	r2,r16,r2
 80006c0:	1005d23a 	srai	r2,r2,8
 80006c4:	10802004 	addi	r2,r2,128
 80006c8:	e0bffd15 	stw	r2,-12(fp)

			if (Y < 0)
 80006cc:	e0bffb17 	ldw	r2,-20(fp)
 80006d0:	1000020e 	bge	r2,zero,80006dc <read_444_format+0x340>
				Y = 0;
 80006d4:	e03ffb15 	stw	zero,-20(fp)
 80006d8:	00000506 	br	80006f0 <read_444_format+0x354>
			else if (Y > 255)
 80006dc:	e0bffb17 	ldw	r2,-20(fp)
 80006e0:	10804010 	cmplti	r2,r2,256
 80006e4:	1000021e 	bne	r2,zero,80006f0 <read_444_format+0x354>
				Y = 255;
 80006e8:	00803fc4 	movi	r2,255
 80006ec:	e0bffb15 	stw	r2,-20(fp)

			if (Cb < 0)
 80006f0:	e0bffc17 	ldw	r2,-16(fp)
 80006f4:	1000020e 	bge	r2,zero,8000700 <read_444_format+0x364>
				Cb = 0;
 80006f8:	e03ffc15 	stw	zero,-16(fp)
 80006fc:	00000506 	br	8000714 <read_444_format+0x378>
			else if (Cb > 255)
 8000700:	e0bffc17 	ldw	r2,-16(fp)
 8000704:	10804010 	cmplti	r2,r2,256
 8000708:	1000021e 	bne	r2,zero,8000714 <read_444_format+0x378>
				Cb = 255;
 800070c:	00803fc4 	movi	r2,255
 8000710:	e0bffc15 	stw	r2,-16(fp)

			if (Cr < 0)
 8000714:	e0bffd17 	ldw	r2,-12(fp)
 8000718:	1000020e 	bge	r2,zero,8000724 <read_444_format+0x388>
				Cr = 0;
 800071c:	e03ffd15 	stw	zero,-12(fp)
			else if (Cr > 255)
				Cr = 255;

			for (; j > 0; j--)
 8000720:	00001e06 	br	800079c <read_444_format+0x400>
			else if (Cb > 255)
				Cb = 255;

			if (Cr < 0)
				Cr = 0;
			else if (Cr > 255)
 8000724:	e0bffd17 	ldw	r2,-12(fp)
 8000728:	10804010 	cmplti	r2,r2,256
 800072c:	10001b1e 	bne	r2,zero,800079c <read_444_format+0x400>
				Cr = 255;
 8000730:	00803fc4 	movi	r2,255
 8000734:	e0bffd15 	stw	r2,-12(fp)

			for (; j > 0; j--)
 8000738:	00001806 	br	800079c <read_444_format+0x400>
				// Print the RGB values
				// printf("(%3d, %3d, %3d) ", R, G, B);

				// printf("(%3d, %3d, %3d) ", Y, Cb, Cr);

				WRITE_FIFO_SUB(&Y, IN_BASE_1to2A, CONTROL_BASE_1to2A);
 800073c:	e0bffb04 	addi	r2,fp,-20
 8000740:	1009883a 	mov	r4,r2
 8000744:	01440034 	movhi	r5,4096
 8000748:	29444204 	addi	r5,r5,4360
 800074c:	01840034 	movhi	r6,4096
 8000750:	31841004 	addi	r6,r6,4160
 8000754:	80002580 	call	8000258 <WRITE_FIFO_SUB>
				WRITE_FIFO_SUB(&Cb, IN_BASE_1to2B, CONTROL_BASE_1to2B);
 8000758:	e0bffc04 	addi	r2,fp,-16
 800075c:	1009883a 	mov	r4,r2
 8000760:	01440034 	movhi	r5,4096
 8000764:	29444104 	addi	r5,r5,4356
 8000768:	01840034 	movhi	r6,4096
 800076c:	31840804 	addi	r6,r6,4128
 8000770:	80002580 	call	8000258 <WRITE_FIFO_SUB>
				WRITE_FIFO_SUB(&Cr, IN_BASE_1to2C, CONTROL_BASE_1to2C);
 8000774:	e0bffd04 	addi	r2,fp,-12
 8000778:	1009883a 	mov	r4,r2
 800077c:	01440034 	movhi	r5,4096
 8000780:	29444004 	addi	r5,r5,4352
 8000784:	01840034 	movhi	r6,4096
 8000788:	31840004 	addi	r6,r6,4096
 800078c:	80002580 	call	8000258 <WRITE_FIFO_SUB>
			if (Cr < 0)
				Cr = 0;
			else if (Cr > 255)
				Cr = 255;

			for (; j > 0; j--)
 8000790:	e0bff717 	ldw	r2,-36(fp)
 8000794:	10bfffc4 	addi	r2,r2,-1
 8000798:	e0bff715 	stw	r2,-36(fp)
 800079c:	e0bff717 	ldw	r2,-36(fp)
 80007a0:	00bfe616 	blt	zero,r2,800073c <read_444_format+0x3a0>
				WRITE_FIFO_SUB(&Cb, IN_BASE_1to2B, CONTROL_BASE_1to2B);
				WRITE_FIFO_SUB(&Cr, IN_BASE_1to2C, CONTROL_BASE_1to2C);
			}
		}

		input_ptr += incr;
 80007a4:	e0bff90b 	ldhu	r2,-28(fp)
 80007a8:	e0ffff17 	ldw	r3,-4(fp)
 80007ac:	1885883a 	add	r2,r3,r2
 80007b0:	e0bfff15 	stw	r2,-4(fp)

	UINT16 rows = jpeg_encoder_structure->rows;
	UINT16 cols = jpeg_encoder_structure->cols;
	UINT16 incr = jpeg_encoder_structure->incr;

	for (i = rows; i > 0; i--)
 80007b4:	e0bff617 	ldw	r2,-40(fp)
 80007b8:	10bfffc4 	addi	r2,r2,-1
 80007bc:	e0bff615 	stw	r2,-40(fp)
 80007c0:	e0bff617 	ldw	r2,-40(fp)
 80007c4:	00bf0816 	blt	zero,r2,80003e8 <read_444_format+0x4c>
		}

		input_ptr += incr;
	}

	input_ptr -= incr;
 80007c8:	e0bff90b 	ldhu	r2,-28(fp)
 80007cc:	0085c83a 	sub	r2,zero,r2
 80007d0:	e0ffff17 	ldw	r3,-4(fp)
 80007d4:	1885883a 	add	r2,r3,r2
 80007d8:	e0bfff15 	stw	r2,-4(fp)

	for (i = 8 - rows; i > 0; i--)
 80007dc:	e0bff80b 	ldhu	r2,-32(fp)
 80007e0:	00c00204 	movi	r3,8
 80007e4:	1885c83a 	sub	r2,r3,r2
 80007e8:	e0bff615 	stw	r2,-40(fp)
 80007ec:	0000fb06 	br	8000bdc <read_444_format+0x840>
	{
		// Print a new line for each row
		// printf("\nRow %d: ", rows + (8 - rows) - i + 1);
		for (j = cols * 3; j > 0;)
 80007f0:	e0fff88b 	ldhu	r3,-30(fp)
 80007f4:	1805883a 	mov	r2,r3
 80007f8:	1085883a 	add	r2,r2,r2
 80007fc:	10c5883a 	add	r2,r2,r3
 8000800:	e0bff715 	stw	r2,-36(fp)
 8000804:	00007b06 	br	80009f4 <read_444_format+0x658>
		{
			R = *(input_ptr - (j--));
 8000808:	e0bff717 	ldw	r2,-36(fp)
 800080c:	0085c83a 	sub	r2,zero,r2
 8000810:	e0ffff17 	ldw	r3,-4(fp)
 8000814:	1885883a 	add	r2,r3,r2
 8000818:	10800003 	ldbu	r2,0(r2)
 800081c:	e0bff985 	stb	r2,-26(fp)
 8000820:	e0bff717 	ldw	r2,-36(fp)
 8000824:	10bfffc4 	addi	r2,r2,-1
 8000828:	e0bff715 	stw	r2,-36(fp)
			G = *(input_ptr - (j--));
 800082c:	e0bff717 	ldw	r2,-36(fp)
 8000830:	0085c83a 	sub	r2,zero,r2
 8000834:	e0ffff17 	ldw	r3,-4(fp)
 8000838:	1885883a 	add	r2,r3,r2
 800083c:	10800003 	ldbu	r2,0(r2)
 8000840:	e0bff9c5 	stb	r2,-25(fp)
 8000844:	e0bff717 	ldw	r2,-36(fp)
 8000848:	10bfffc4 	addi	r2,r2,-1
 800084c:	e0bff715 	stw	r2,-36(fp)
			B = *(input_ptr - (j--));
 8000850:	e0bff717 	ldw	r2,-36(fp)
 8000854:	0085c83a 	sub	r2,zero,r2
 8000858:	e0ffff17 	ldw	r3,-4(fp)
 800085c:	1885883a 	add	r2,r3,r2
 8000860:	10800003 	ldbu	r2,0(r2)
 8000864:	e0bffa05 	stb	r2,-24(fp)
 8000868:	e0bff717 	ldw	r2,-36(fp)
 800086c:	10bfffc4 	addi	r2,r2,-1
 8000870:	e0bff715 	stw	r2,-36(fp)

			// Print the RGB values
			// printf("(%3d, %3d, %3d) ", R, G, B);

			Y = ((77 * R + 150 * G + 29 * B) >> 8);
 8000874:	e0bff983 	ldbu	r2,-26(fp)
 8000878:	1009883a 	mov	r4,r2
 800087c:	01401344 	movi	r5,77
 8000880:	8001a6c0 	call	8001a6c <__mulsi3>
 8000884:	1021883a 	mov	r16,r2
 8000888:	e0bff9c3 	ldbu	r2,-25(fp)
 800088c:	1009883a 	mov	r4,r2
 8000890:	01402584 	movi	r5,150
 8000894:	8001a6c0 	call	8001a6c <__mulsi3>
 8000898:	80a1883a 	add	r16,r16,r2
 800089c:	e0bffa03 	ldbu	r2,-24(fp)
 80008a0:	1009883a 	mov	r4,r2
 80008a4:	01400744 	movi	r5,29
 80008a8:	8001a6c0 	call	8001a6c <__mulsi3>
 80008ac:	8085883a 	add	r2,r16,r2
 80008b0:	1005d23a 	srai	r2,r2,8
 80008b4:	e0bffb15 	stw	r2,-20(fp)
			Cb = ((-43 * R - 85 * G + 128 * B) >> 8) + 128;
 80008b8:	e0bff983 	ldbu	r2,-26(fp)
 80008bc:	1009883a 	mov	r4,r2
 80008c0:	017ff544 	movi	r5,-43
 80008c4:	8001a6c0 	call	8001a6c <__mulsi3>
 80008c8:	1021883a 	mov	r16,r2
 80008cc:	e0bff9c3 	ldbu	r2,-25(fp)
 80008d0:	1009883a 	mov	r4,r2
 80008d4:	017feac4 	movi	r5,-85
 80008d8:	8001a6c0 	call	8001a6c <__mulsi3>
 80008dc:	8087883a 	add	r3,r16,r2
 80008e0:	e0bffa03 	ldbu	r2,-24(fp)
 80008e4:	100491fa 	slli	r2,r2,7
 80008e8:	1885883a 	add	r2,r3,r2
 80008ec:	1005d23a 	srai	r2,r2,8
 80008f0:	10802004 	addi	r2,r2,128
 80008f4:	e0bffc15 	stw	r2,-16(fp)
			Cr = ((128 * R - 107 * G - 21 * B) >> 8) + 128;
 80008f8:	e0bff983 	ldbu	r2,-26(fp)
 80008fc:	102091fa 	slli	r16,r2,7
 8000900:	e0bff9c3 	ldbu	r2,-25(fp)
 8000904:	1009883a 	mov	r4,r2
 8000908:	017fe544 	movi	r5,-107
 800090c:	8001a6c0 	call	8001a6c <__mulsi3>
 8000910:	80a1883a 	add	r16,r16,r2
 8000914:	e0bffa03 	ldbu	r2,-24(fp)
 8000918:	1009883a 	mov	r4,r2
 800091c:	017ffac4 	movi	r5,-21
 8000920:	8001a6c0 	call	8001a6c <__mulsi3>
 8000924:	8085883a 	add	r2,r16,r2
 8000928:	1005d23a 	srai	r2,r2,8
 800092c:	10802004 	addi	r2,r2,128
 8000930:	e0bffd15 	stw	r2,-12(fp)

			if (Y < 0)
 8000934:	e0bffb17 	ldw	r2,-20(fp)
 8000938:	1000020e 	bge	r2,zero,8000944 <read_444_format+0x5a8>
				Y = 0;
 800093c:	e03ffb15 	stw	zero,-20(fp)
 8000940:	00000506 	br	8000958 <read_444_format+0x5bc>
			else if (Y > 255)
 8000944:	e0bffb17 	ldw	r2,-20(fp)
 8000948:	10804010 	cmplti	r2,r2,256
 800094c:	1000021e 	bne	r2,zero,8000958 <read_444_format+0x5bc>
				Y = 255;
 8000950:	00803fc4 	movi	r2,255
 8000954:	e0bffb15 	stw	r2,-20(fp)

			if (Cb < 0)
 8000958:	e0bffc17 	ldw	r2,-16(fp)
 800095c:	1000020e 	bge	r2,zero,8000968 <read_444_format+0x5cc>
				Cb = 0;
 8000960:	e03ffc15 	stw	zero,-16(fp)
 8000964:	00000506 	br	800097c <read_444_format+0x5e0>
			else if (Cb > 255)
 8000968:	e0bffc17 	ldw	r2,-16(fp)
 800096c:	10804010 	cmplti	r2,r2,256
 8000970:	1000021e 	bne	r2,zero,800097c <read_444_format+0x5e0>
				Cb = 255;
 8000974:	00803fc4 	movi	r2,255
 8000978:	e0bffc15 	stw	r2,-16(fp)

			if (Cr < 0)
 800097c:	e0bffd17 	ldw	r2,-12(fp)
 8000980:	1000020e 	bge	r2,zero,800098c <read_444_format+0x5f0>
				Cr = 0;
 8000984:	e03ffd15 	stw	zero,-12(fp)
 8000988:	00000506 	br	80009a0 <read_444_format+0x604>
			else if (Cr > 255)
 800098c:	e0bffd17 	ldw	r2,-12(fp)
 8000990:	10804010 	cmplti	r2,r2,256
 8000994:	1000021e 	bne	r2,zero,80009a0 <read_444_format+0x604>
				Cr = 255;
 8000998:	00803fc4 	movi	r2,255
 800099c:	e0bffd15 	stw	r2,-12(fp)

			// printf("(%3d, %3d, %3d) ", Y, Cb, Cr);

			WRITE_FIFO_SUB(&Y, IN_BASE_1to2A, CONTROL_BASE_1to2A);
 80009a0:	e0bffb04 	addi	r2,fp,-20
 80009a4:	1009883a 	mov	r4,r2
 80009a8:	01440034 	movhi	r5,4096
 80009ac:	29444204 	addi	r5,r5,4360
 80009b0:	01840034 	movhi	r6,4096
 80009b4:	31841004 	addi	r6,r6,4160
 80009b8:	80002580 	call	8000258 <WRITE_FIFO_SUB>
			WRITE_FIFO_SUB(&Cb, IN_BASE_1to2B, CONTROL_BASE_1to2B);
 80009bc:	e0bffc04 	addi	r2,fp,-16
 80009c0:	1009883a 	mov	r4,r2
 80009c4:	01440034 	movhi	r5,4096
 80009c8:	29444104 	addi	r5,r5,4356
 80009cc:	01840034 	movhi	r6,4096
 80009d0:	31840804 	addi	r6,r6,4128
 80009d4:	80002580 	call	8000258 <WRITE_FIFO_SUB>
			WRITE_FIFO_SUB(&Cr, IN_BASE_1to2C, CONTROL_BASE_1to2C);
 80009d8:	e0bffd04 	addi	r2,fp,-12
 80009dc:	1009883a 	mov	r4,r2
 80009e0:	01440034 	movhi	r5,4096
 80009e4:	29444004 	addi	r5,r5,4352
 80009e8:	01840034 	movhi	r6,4096
 80009ec:	31840004 	addi	r6,r6,4096
 80009f0:	80002580 	call	8000258 <WRITE_FIFO_SUB>

	for (i = 8 - rows; i > 0; i--)
	{
		// Print a new line for each row
		// printf("\nRow %d: ", rows + (8 - rows) - i + 1);
		for (j = cols * 3; j > 0;)
 80009f4:	e0bff717 	ldw	r2,-36(fp)
 80009f8:	00bf8316 	blt	zero,r2,8000808 <read_444_format+0x46c>
			WRITE_FIFO_SUB(&Y, IN_BASE_1to2A, CONTROL_BASE_1to2A);
			WRITE_FIFO_SUB(&Cb, IN_BASE_1to2B, CONTROL_BASE_1to2B);
			WRITE_FIFO_SUB(&Cr, IN_BASE_1to2C, CONTROL_BASE_1to2C);
		}

		if ((j = (8 - cols)) > 0)
 80009fc:	e0bff88b 	ldhu	r2,-30(fp)
 8000a00:	00c00204 	movi	r3,8
 8000a04:	1885c83a 	sub	r2,r3,r2
 8000a08:	e0bff715 	stw	r2,-36(fp)
 8000a0c:	e0bff717 	ldw	r2,-36(fp)
 8000a10:	00806f0e 	bge	zero,r2,8000bd0 <read_444_format+0x834>
		{
			R = *(input_ptr - 3);
 8000a14:	e0bfff17 	ldw	r2,-4(fp)
 8000a18:	10bfff43 	ldbu	r2,-3(r2)
 8000a1c:	e0bff985 	stb	r2,-26(fp)
			G = *(input_ptr - 2);
 8000a20:	e0bfff17 	ldw	r2,-4(fp)
 8000a24:	10bfff83 	ldbu	r2,-2(r2)
 8000a28:	e0bff9c5 	stb	r2,-25(fp)
			B = *(input_ptr - 1);
 8000a2c:	e0bfff17 	ldw	r2,-4(fp)
 8000a30:	10bfffc3 	ldbu	r2,-1(r2)
 8000a34:	e0bffa05 	stb	r2,-24(fp)

			// Print the RGB values
			// printf("(%3d, %3d, %3d) ", R, G, B);
			// printf("(%3d, %3d, %3d) ", Y, Cb, Cr);

			Y = ((77 * R + 150 * G + 29 * B) >> 8);
 8000a38:	e0bff983 	ldbu	r2,-26(fp)
 8000a3c:	1009883a 	mov	r4,r2
 8000a40:	01401344 	movi	r5,77
 8000a44:	8001a6c0 	call	8001a6c <__mulsi3>
 8000a48:	1021883a 	mov	r16,r2
 8000a4c:	e0bff9c3 	ldbu	r2,-25(fp)
 8000a50:	1009883a 	mov	r4,r2
 8000a54:	01402584 	movi	r5,150
 8000a58:	8001a6c0 	call	8001a6c <__mulsi3>
 8000a5c:	80a1883a 	add	r16,r16,r2
 8000a60:	e0bffa03 	ldbu	r2,-24(fp)
 8000a64:	1009883a 	mov	r4,r2
 8000a68:	01400744 	movi	r5,29
 8000a6c:	8001a6c0 	call	8001a6c <__mulsi3>
 8000a70:	8085883a 	add	r2,r16,r2
 8000a74:	1005d23a 	srai	r2,r2,8
 8000a78:	e0bffb15 	stw	r2,-20(fp)
			Cb = ((-43 * R - 85 * G + 128 * B) >> 8) + 128;
 8000a7c:	e0bff983 	ldbu	r2,-26(fp)
 8000a80:	1009883a 	mov	r4,r2
 8000a84:	017ff544 	movi	r5,-43
 8000a88:	8001a6c0 	call	8001a6c <__mulsi3>
 8000a8c:	1021883a 	mov	r16,r2
 8000a90:	e0bff9c3 	ldbu	r2,-25(fp)
 8000a94:	1009883a 	mov	r4,r2
 8000a98:	017feac4 	movi	r5,-85
 8000a9c:	8001a6c0 	call	8001a6c <__mulsi3>
 8000aa0:	8087883a 	add	r3,r16,r2
 8000aa4:	e0bffa03 	ldbu	r2,-24(fp)
 8000aa8:	100491fa 	slli	r2,r2,7
 8000aac:	1885883a 	add	r2,r3,r2
 8000ab0:	1005d23a 	srai	r2,r2,8
 8000ab4:	10802004 	addi	r2,r2,128
 8000ab8:	e0bffc15 	stw	r2,-16(fp)
			Cr = ((128 * R - 107 * G - 21 * B) >> 8) + 128;
 8000abc:	e0bff983 	ldbu	r2,-26(fp)
 8000ac0:	102091fa 	slli	r16,r2,7
 8000ac4:	e0bff9c3 	ldbu	r2,-25(fp)
 8000ac8:	1009883a 	mov	r4,r2
 8000acc:	017fe544 	movi	r5,-107
 8000ad0:	8001a6c0 	call	8001a6c <__mulsi3>
 8000ad4:	80a1883a 	add	r16,r16,r2
 8000ad8:	e0bffa03 	ldbu	r2,-24(fp)
 8000adc:	1009883a 	mov	r4,r2
 8000ae0:	017ffac4 	movi	r5,-21
 8000ae4:	8001a6c0 	call	8001a6c <__mulsi3>
 8000ae8:	8085883a 	add	r2,r16,r2
 8000aec:	1005d23a 	srai	r2,r2,8
 8000af0:	10802004 	addi	r2,r2,128
 8000af4:	e0bffd15 	stw	r2,-12(fp)

			if (Y < 0)
 8000af8:	e0bffb17 	ldw	r2,-20(fp)
 8000afc:	1000020e 	bge	r2,zero,8000b08 <read_444_format+0x76c>
				Y = 0;
 8000b00:	e03ffb15 	stw	zero,-20(fp)
 8000b04:	00000506 	br	8000b1c <read_444_format+0x780>
			else if (Y > 255)
 8000b08:	e0bffb17 	ldw	r2,-20(fp)
 8000b0c:	10804010 	cmplti	r2,r2,256
 8000b10:	1000021e 	bne	r2,zero,8000b1c <read_444_format+0x780>
				Y = 255;
 8000b14:	00803fc4 	movi	r2,255
 8000b18:	e0bffb15 	stw	r2,-20(fp)

			if (Cb < 0)
 8000b1c:	e0bffc17 	ldw	r2,-16(fp)
 8000b20:	1000020e 	bge	r2,zero,8000b2c <read_444_format+0x790>
				Cb = 0;
 8000b24:	e03ffc15 	stw	zero,-16(fp)
 8000b28:	00000506 	br	8000b40 <read_444_format+0x7a4>
			else if (Cb > 255)
 8000b2c:	e0bffc17 	ldw	r2,-16(fp)
 8000b30:	10804010 	cmplti	r2,r2,256
 8000b34:	1000021e 	bne	r2,zero,8000b40 <read_444_format+0x7a4>
				Cb = 255;
 8000b38:	00803fc4 	movi	r2,255
 8000b3c:	e0bffc15 	stw	r2,-16(fp)

			if (Cr < 0)
 8000b40:	e0bffd17 	ldw	r2,-12(fp)
 8000b44:	1000020e 	bge	r2,zero,8000b50 <read_444_format+0x7b4>
				Cr = 0;
 8000b48:	e03ffd15 	stw	zero,-12(fp)
			else if (Cr > 255)
				Cr = 255;

			for (; j > 0; j--)
 8000b4c:	00001e06 	br	8000bc8 <read_444_format+0x82c>
			else if (Cb > 255)
				Cb = 255;

			if (Cr < 0)
				Cr = 0;
			else if (Cr > 255)
 8000b50:	e0bffd17 	ldw	r2,-12(fp)
 8000b54:	10804010 	cmplti	r2,r2,256
 8000b58:	10001b1e 	bne	r2,zero,8000bc8 <read_444_format+0x82c>
				Cr = 255;
 8000b5c:	00803fc4 	movi	r2,255
 8000b60:	e0bffd15 	stw	r2,-12(fp)

			for (; j > 0; j--)
 8000b64:	00001806 	br	8000bc8 <read_444_format+0x82c>
			{
				// Print the RGB values
				// printf("(%3d, %3d, %3d) ", R, G, B);
				// printf("(%3d, %3d, %3d) ", Y, Cb, Cr);

				WRITE_FIFO_SUB(&Y, IN_BASE_1to2A, CONTROL_BASE_1to2A);
 8000b68:	e0bffb04 	addi	r2,fp,-20
 8000b6c:	1009883a 	mov	r4,r2
 8000b70:	01440034 	movhi	r5,4096
 8000b74:	29444204 	addi	r5,r5,4360
 8000b78:	01840034 	movhi	r6,4096
 8000b7c:	31841004 	addi	r6,r6,4160
 8000b80:	80002580 	call	8000258 <WRITE_FIFO_SUB>
				WRITE_FIFO_SUB(&Cb, IN_BASE_1to2B, CONTROL_BASE_1to2B);
 8000b84:	e0bffc04 	addi	r2,fp,-16
 8000b88:	1009883a 	mov	r4,r2
 8000b8c:	01440034 	movhi	r5,4096
 8000b90:	29444104 	addi	r5,r5,4356
 8000b94:	01840034 	movhi	r6,4096
 8000b98:	31840804 	addi	r6,r6,4128
 8000b9c:	80002580 	call	8000258 <WRITE_FIFO_SUB>
				WRITE_FIFO_SUB(&Cr, IN_BASE_1to2C, CONTROL_BASE_1to2C);
 8000ba0:	e0bffd04 	addi	r2,fp,-12
 8000ba4:	1009883a 	mov	r4,r2
 8000ba8:	01440034 	movhi	r5,4096
 8000bac:	29444004 	addi	r5,r5,4352
 8000bb0:	01840034 	movhi	r6,4096
 8000bb4:	31840004 	addi	r6,r6,4096
 8000bb8:	80002580 	call	8000258 <WRITE_FIFO_SUB>
			if (Cr < 0)
				Cr = 0;
			else if (Cr > 255)
				Cr = 255;

			for (; j > 0; j--)
 8000bbc:	e0bff717 	ldw	r2,-36(fp)
 8000bc0:	10bfffc4 	addi	r2,r2,-1
 8000bc4:	e0bff715 	stw	r2,-36(fp)
 8000bc8:	e0bff717 	ldw	r2,-36(fp)
 8000bcc:	00bfe616 	blt	zero,r2,8000b68 <read_444_format+0x7cc>
		input_ptr += incr;
	}

	input_ptr -= incr;

	for (i = 8 - rows; i > 0; i--)
 8000bd0:	e0bff617 	ldw	r2,-40(fp)
 8000bd4:	10bfffc4 	addi	r2,r2,-1
 8000bd8:	e0bff615 	stw	r2,-40(fp)
 8000bdc:	e0bff617 	ldw	r2,-40(fp)
 8000be0:	00bf0316 	blt	zero,r2,80007f0 <read_444_format+0x454>
			}
		}
	}

	// printf("\n");
}
 8000be4:	e037883a 	mov	sp,fp
 8000be8:	dfc00217 	ldw	ra,8(sp)
 8000bec:	df000117 	ldw	fp,4(sp)
 8000bf0:	dc000017 	ldw	r16,0(sp)
 8000bf4:	dec00304 	addi	sp,sp,12
 8000bf8:	f800283a 	ret

08000bfc <print_grid>:
	unsigned int biClrImportant;
} BITMAPINFOHEADER;
#pragma pack(pop)

void print_grid(UINT8 *data, UINT32 width, UINT32 height)
{
 8000bfc:	defff804 	addi	sp,sp,-32
 8000c00:	dfc00715 	stw	ra,28(sp)
 8000c04:	df000615 	stw	fp,24(sp)
 8000c08:	df000604 	addi	fp,sp,24
 8000c0c:	e13ffd15 	stw	r4,-12(fp)
 8000c10:	e17ffe15 	stw	r5,-8(fp)
 8000c14:	e1bfff15 	stw	r6,-4(fp)
	UINT32 row, col;
	for (row = 0; row < height; row++)
 8000c18:	e03ffa15 	stw	zero,-24(fp)
 8000c1c:	00002d06 	br	8000cd4 <print_grid+0xd8>
	{
		for (col = 0; col < width; col++)
 8000c20:	e03ffb15 	stw	zero,-20(fp)
 8000c24:	00002306 	br	8000cb4 <print_grid+0xb8>
		{
			UINT32 index = row * width * 3 + col * 3;
 8000c28:	e13ffa17 	ldw	r4,-24(fp)
 8000c2c:	e17ffe17 	ldw	r5,-8(fp)
 8000c30:	8001a6c0 	call	8001a6c <__mulsi3>
 8000c34:	1007883a 	mov	r3,r2
 8000c38:	e0bffb17 	ldw	r2,-20(fp)
 8000c3c:	1887883a 	add	r3,r3,r2
 8000c40:	1805883a 	mov	r2,r3
 8000c44:	1085883a 	add	r2,r2,r2
 8000c48:	10c5883a 	add	r2,r2,r3
 8000c4c:	e0bffc15 	stw	r2,-16(fp)
			printf("(%3d, %3d, %3d) ", data[index + 2], data[index + 1], data[index]);
 8000c50:	e0bffc17 	ldw	r2,-16(fp)
 8000c54:	10800084 	addi	r2,r2,2
 8000c58:	e0fffd17 	ldw	r3,-12(fp)
 8000c5c:	1885883a 	add	r2,r3,r2
 8000c60:	10800003 	ldbu	r2,0(r2)
 8000c64:	11403fcc 	andi	r5,r2,255
 8000c68:	e0bffc17 	ldw	r2,-16(fp)
 8000c6c:	10800044 	addi	r2,r2,1
 8000c70:	e0fffd17 	ldw	r3,-12(fp)
 8000c74:	1885883a 	add	r2,r3,r2
 8000c78:	10800003 	ldbu	r2,0(r2)
 8000c7c:	10c03fcc 	andi	r3,r2,255
 8000c80:	e13ffd17 	ldw	r4,-12(fp)
 8000c84:	e0bffc17 	ldw	r2,-16(fp)
 8000c88:	2085883a 	add	r2,r4,r2
 8000c8c:	10800003 	ldbu	r2,0(r2)
 8000c90:	10803fcc 	andi	r2,r2,255
 8000c94:	01020074 	movhi	r4,2049
 8000c98:	21110d04 	addi	r4,r4,17460
 8000c9c:	180d883a 	mov	r6,r3
 8000ca0:	100f883a 	mov	r7,r2
 8000ca4:	80041640 	call	8004164 <printf>
void print_grid(UINT8 *data, UINT32 width, UINT32 height)
{
	UINT32 row, col;
	for (row = 0; row < height; row++)
	{
		for (col = 0; col < width; col++)
 8000ca8:	e0bffb17 	ldw	r2,-20(fp)
 8000cac:	10800044 	addi	r2,r2,1
 8000cb0:	e0bffb15 	stw	r2,-20(fp)
 8000cb4:	e0fffb17 	ldw	r3,-20(fp)
 8000cb8:	e0bffe17 	ldw	r2,-8(fp)
 8000cbc:	18bfda36 	bltu	r3,r2,8000c28 <print_grid+0x2c>
		{
			UINT32 index = row * width * 3 + col * 3;
			printf("(%3d, %3d, %3d) ", data[index + 2], data[index + 1], data[index]);
		}
		printf("\n");
 8000cc0:	01000284 	movi	r4,10
 8000cc4:	80041a80 	call	80041a8 <putchar>
#pragma pack(pop)

void print_grid(UINT8 *data, UINT32 width, UINT32 height)
{
	UINT32 row, col;
	for (row = 0; row < height; row++)
 8000cc8:	e0bffa17 	ldw	r2,-24(fp)
 8000ccc:	10800044 	addi	r2,r2,1
 8000cd0:	e0bffa15 	stw	r2,-24(fp)
 8000cd4:	e0fffa17 	ldw	r3,-24(fp)
 8000cd8:	e0bfff17 	ldw	r2,-4(fp)
 8000cdc:	18bfd036 	bltu	r3,r2,8000c20 <print_grid+0x24>
			UINT32 index = row * width * 3 + col * 3;
			printf("(%3d, %3d, %3d) ", data[index + 2], data[index + 1], data[index]);
		}
		printf("\n");
	}
	printf("\n");
 8000ce0:	01000284 	movi	r4,10
 8000ce4:	80041a80 	call	80041a8 <putchar>
}
 8000ce8:	e037883a 	mov	sp,fp
 8000cec:	dfc00117 	ldw	ra,4(sp)
 8000cf0:	df000017 	ldw	fp,0(sp)
 8000cf4:	dec00204 	addi	sp,sp,8
 8000cf8:	f800283a 	ret

08000cfc <initialization>:

void initialization(JPEG_ENCODER_STRUCTURE *jpeg, UINT32 image_width, UINT32 image_height)
{
 8000cfc:	defff804 	addi	sp,sp,-32
 8000d00:	dfc00715 	stw	ra,28(sp)
 8000d04:	df000615 	stw	fp,24(sp)
 8000d08:	dc000515 	stw	r16,20(sp)
 8000d0c:	df000504 	addi	fp,sp,20
 8000d10:	e13ffd15 	stw	r4,-12(fp)
 8000d14:	e17ffe15 	stw	r5,-8(fp)
 8000d18:	e1bfff15 	stw	r6,-4(fp)
	UINT16 mcu_width, mcu_height, bytes_per_pixel;

	jpeg->mcu_width = mcu_width = 8;
 8000d1c:	00800204 	movi	r2,8
 8000d20:	e0bffb0d 	sth	r2,-20(fp)
 8000d24:	e0bffd17 	ldw	r2,-12(fp)
 8000d28:	e0fffb0b 	ldhu	r3,-20(fp)
 8000d2c:	10c0000d 	sth	r3,0(r2)
	jpeg->mcu_height = mcu_height = 8;
 8000d30:	00800204 	movi	r2,8
 8000d34:	e0bffb8d 	sth	r2,-18(fp)
 8000d38:	e0bffd17 	ldw	r2,-12(fp)
 8000d3c:	e0fffb8b 	ldhu	r3,-18(fp)
 8000d40:	10c0008d 	sth	r3,2(r2)

	jpeg->horizontal_mcus = (UINT16)((image_width + mcu_width - 1) >> 3);
 8000d44:	e0fffb0b 	ldhu	r3,-20(fp)
 8000d48:	e0bffe17 	ldw	r2,-8(fp)
 8000d4c:	1885883a 	add	r2,r3,r2
 8000d50:	10bfffc4 	addi	r2,r2,-1
 8000d54:	1004d0fa 	srli	r2,r2,3
 8000d58:	1007883a 	mov	r3,r2
 8000d5c:	e0bffd17 	ldw	r2,-12(fp)
 8000d60:	10c0010d 	sth	r3,4(r2)
	jpeg->vertical_mcus = (UINT16)((image_height + mcu_height - 1) >> 3);
 8000d64:	e0fffb8b 	ldhu	r3,-18(fp)
 8000d68:	e0bfff17 	ldw	r2,-4(fp)
 8000d6c:	1885883a 	add	r2,r3,r2
 8000d70:	10bfffc4 	addi	r2,r2,-1
 8000d74:	1004d0fa 	srli	r2,r2,3
 8000d78:	1007883a 	mov	r3,r2
 8000d7c:	e0bffd17 	ldw	r2,-12(fp)
 8000d80:	10c0018d 	sth	r3,6(r2)

	bytes_per_pixel = 3;
 8000d84:	008000c4 	movi	r2,3
 8000d88:	e0bffc0d 	sth	r2,-16(fp)

	jpeg->rows_in_bottom_mcus = (UINT16)(image_height - (jpeg->vertical_mcus - 1) * mcu_height);
 8000d8c:	e0bfff17 	ldw	r2,-4(fp)
 8000d90:	1021883a 	mov	r16,r2
 8000d94:	e0bffd17 	ldw	r2,-12(fp)
 8000d98:	1080018b 	ldhu	r2,6(r2)
 8000d9c:	10bfffcc 	andi	r2,r2,65535
 8000da0:	10bfffc4 	addi	r2,r2,-1
 8000da4:	1007883a 	mov	r3,r2
 8000da8:	e0bffb8b 	ldhu	r2,-18(fp)
 8000dac:	1809883a 	mov	r4,r3
 8000db0:	100b883a 	mov	r5,r2
 8000db4:	8001a6c0 	call	8001a6c <__mulsi3>
 8000db8:	8085c83a 	sub	r2,r16,r2
 8000dbc:	1007883a 	mov	r3,r2
 8000dc0:	e0bffd17 	ldw	r2,-12(fp)
 8000dc4:	10c0028d 	sth	r3,10(r2)
	jpeg->cols_in_right_mcus = (UINT16)(image_width - (jpeg->horizontal_mcus - 1) * mcu_width);
 8000dc8:	e0bffe17 	ldw	r2,-8(fp)
 8000dcc:	1021883a 	mov	r16,r2
 8000dd0:	e0bffd17 	ldw	r2,-12(fp)
 8000dd4:	1080010b 	ldhu	r2,4(r2)
 8000dd8:	10bfffcc 	andi	r2,r2,65535
 8000ddc:	10bfffc4 	addi	r2,r2,-1
 8000de0:	1007883a 	mov	r3,r2
 8000de4:	e0bffb0b 	ldhu	r2,-20(fp)
 8000de8:	1809883a 	mov	r4,r3
 8000dec:	100b883a 	mov	r5,r2
 8000df0:	8001a6c0 	call	8001a6c <__mulsi3>
 8000df4:	8085c83a 	sub	r2,r16,r2
 8000df8:	1007883a 	mov	r3,r2
 8000dfc:	e0bffd17 	ldw	r2,-12(fp)
 8000e00:	10c0020d 	sth	r3,8(r2)

	jpeg->length_minus_mcu_width = (UINT16)((image_width - mcu_width) * bytes_per_pixel);
 8000e04:	e0bffb0b 	ldhu	r2,-20(fp)
 8000e08:	e0fffe17 	ldw	r3,-8(fp)
 8000e0c:	1885c83a 	sub	r2,r3,r2
 8000e10:	1007883a 	mov	r3,r2
 8000e14:	e0bffc0b 	ldhu	r2,-16(fp)
 8000e18:	1809883a 	mov	r4,r3
 8000e1c:	100b883a 	mov	r5,r2
 8000e20:	8001a6c0 	call	8001a6c <__mulsi3>
 8000e24:	1007883a 	mov	r3,r2
 8000e28:	e0bffd17 	ldw	r2,-12(fp)
 8000e2c:	10c0040d 	sth	r3,16(r2)
	jpeg->length_minus_width = (UINT16)((image_width - jpeg->cols_in_right_mcus) * bytes_per_pixel);
 8000e30:	e0bffd17 	ldw	r2,-12(fp)
 8000e34:	1080020b 	ldhu	r2,8(r2)
 8000e38:	10bfffcc 	andi	r2,r2,65535
 8000e3c:	e0fffe17 	ldw	r3,-8(fp)
 8000e40:	1885c83a 	sub	r2,r3,r2
 8000e44:	1007883a 	mov	r3,r2
 8000e48:	e0bffc0b 	ldhu	r2,-16(fp)
 8000e4c:	1809883a 	mov	r4,r3
 8000e50:	100b883a 	mov	r5,r2
 8000e54:	8001a6c0 	call	8001a6c <__mulsi3>
 8000e58:	1007883a 	mov	r3,r2
 8000e5c:	e0bffd17 	ldw	r2,-12(fp)
 8000e60:	10c0048d 	sth	r3,18(r2)

	jpeg->mcu_width_size = (UINT16)(mcu_width * bytes_per_pixel);
 8000e64:	e0fffb0b 	ldhu	r3,-20(fp)
 8000e68:	e0bffc0b 	ldhu	r2,-16(fp)
 8000e6c:	1809883a 	mov	r4,r3
 8000e70:	100b883a 	mov	r5,r2
 8000e74:	8001a6c0 	call	8001a6c <__mulsi3>
 8000e78:	1007883a 	mov	r3,r2
 8000e7c:	e0bffd17 	ldw	r2,-12(fp)
 8000e80:	10c0058d 	sth	r3,22(r2)

	jpeg->offset = (UINT16)((image_width * (mcu_height - 1) - (mcu_width - jpeg->cols_in_right_mcus)) * bytes_per_pixel);
 8000e84:	e0bffb8b 	ldhu	r2,-18(fp)
 8000e88:	10bfffc4 	addi	r2,r2,-1
 8000e8c:	1009883a 	mov	r4,r2
 8000e90:	e17ffe17 	ldw	r5,-8(fp)
 8000e94:	8001a6c0 	call	8001a6c <__mulsi3>
 8000e98:	1007883a 	mov	r3,r2
 8000e9c:	e0bffd17 	ldw	r2,-12(fp)
 8000ea0:	1080020b 	ldhu	r2,8(r2)
 8000ea4:	113fffcc 	andi	r4,r2,65535
 8000ea8:	e0bffb0b 	ldhu	r2,-20(fp)
 8000eac:	2085c83a 	sub	r2,r4,r2
 8000eb0:	1885883a 	add	r2,r3,r2
 8000eb4:	1007883a 	mov	r3,r2
 8000eb8:	e0bffc0b 	ldhu	r2,-16(fp)
 8000ebc:	1809883a 	mov	r4,r3
 8000ec0:	100b883a 	mov	r5,r2
 8000ec4:	8001a6c0 	call	8001a6c <__mulsi3>
 8000ec8:	1007883a 	mov	r3,r2
 8000ecc:	e0bffd17 	ldw	r2,-12(fp)
 8000ed0:	10c0060d 	sth	r3,24(r2)
}
 8000ed4:	e037883a 	mov	sp,fp
 8000ed8:	dfc00217 	ldw	ra,8(sp)
 8000edc:	df000117 	ldw	fp,4(sp)
 8000ee0:	dc000017 	ldw	r16,0(sp)
 8000ee4:	dec00304 	addi	sp,sp,12
 8000ee8:	f800283a 	ret

08000eec <encode_image>:

UINT8 encode_image(char *input_file_name, UINT32 quality_factor, UINT32 image_width, UINT32 image_height, UINT32 img_count)
{
 8000eec:	deffcd04 	addi	sp,sp,-204
 8000ef0:	dfc03215 	stw	ra,200(sp)
 8000ef4:	df003115 	stw	fp,196(sp)
 8000ef8:	df003104 	addi	fp,sp,196
 8000efc:	e13ffc15 	stw	r4,-16(fp)
 8000f00:	e17ffd15 	stw	r5,-12(fp)
 8000f04:	e1bffe15 	stw	r6,-8(fp)
 8000f08:	e1ffff15 	stw	r7,-4(fp)
	UINT16 i, j;
	int temp;
	clock_t start_time, end_time, block_start_time, block_end_time;

	JPEG_ENCODER_STRUCTURE JpegStruct;
	JPEG_ENCODER_STRUCTURE *jpeg_encoder_structure = &JpegStruct;
 8000f0c:	e0bfdb04 	addi	r2,fp,-148
 8000f10:	e0bfd115 	stw	r2,-188(fp)
	BITMAPFILEHEADER fileHeader;
	BITMAPINFOHEADER infoHeader;

	FILE *fpt, *log_file;

	char path[50] = "/mnt/host/files/";
 8000f14:	009d1bb4 	movhi	r2,29806
 8000f18:	109b4bc4 	addi	r2,r2,27951
 8000f1c:	e0bfef15 	stw	r2,-68(fp)
 8000f20:	009cdbf4 	movhi	r2,29551
 8000f24:	109a0bc4 	addi	r2,r2,26671
 8000f28:	e0bff015 	stw	r2,-64(fp)
 8000f2c:	009a59b4 	movhi	r2,26982
 8000f30:	108bdd04 	addi	r2,r2,12148
 8000f34:	e0bff115 	stw	r2,-60(fp)
 8000f38:	008bdcf4 	movhi	r2,12147
 8000f3c:	10995b04 	addi	r2,r2,25964
 8000f40:	e0bff215 	stw	r2,-56(fp)
 8000f44:	e03ff315 	stw	zero,-52(fp)
 8000f48:	e03ff415 	stw	zero,-48(fp)
 8000f4c:	e03ff515 	stw	zero,-44(fp)
 8000f50:	e03ff615 	stw	zero,-40(fp)
 8000f54:	e03ff715 	stw	zero,-36(fp)
 8000f58:	e03ff815 	stw	zero,-32(fp)
 8000f5c:	e03ff915 	stw	zero,-28(fp)
 8000f60:	e03ffa15 	stw	zero,-24(fp)
 8000f64:	e03ffb0d 	sth	zero,-20(fp)
	strcat(path, input_file_name);
 8000f68:	e0bfef04 	addi	r2,fp,-68
 8000f6c:	1009883a 	mov	r4,r2
 8000f70:	e17ffc17 	ldw	r5,-16(fp)
 8000f74:	80046080 	call	8004608 <strcat>

	fpt = fopen(path, "rb");
 8000f78:	e0bfef04 	addi	r2,fp,-68
 8000f7c:	1009883a 	mov	r4,r2
 8000f80:	01420074 	movhi	r5,2049
 8000f84:	29511204 	addi	r5,r5,17480
 8000f88:	80026c00 	call	80026c0 <fopen>
 8000f8c:	e0bfd215 	stw	r2,-184(fp)
	if (fpt == NULL)
 8000f90:	e0bfd217 	ldw	r2,-184(fp)
 8000f94:	10000c1e 	bne	r2,zero,8000fc8 <encode_image+0xdc>
	{
		fprintf(stderr, "Error opening input file: %s\n", path);
 8000f98:	00820074 	movhi	r2,2049
 8000f9c:	10999c04 	addi	r2,r2,26224
 8000fa0:	10800017 	ldw	r2,0(r2)
 8000fa4:	10c00317 	ldw	r3,12(r2)
 8000fa8:	e0bfef04 	addi	r2,fp,-68
 8000fac:	1809883a 	mov	r4,r3
 8000fb0:	01420074 	movhi	r5,2049
 8000fb4:	29511304 	addi	r5,r5,17484
 8000fb8:	100d883a 	mov	r6,r2
 8000fbc:	80027040 	call	8002704 <fprintf>
		return 1;
 8000fc0:	00800044 	movi	r2,1
 8000fc4:	00010c06 	br	80013f8 <encode_image+0x50c>
	// image_width = infoHeader.biWidth;
	// image_height = abs(infoHeader.biHeight);
	// int row_padded = (image_width * 3 + 3) & (~3);

	// Calculate the size of the image data
	long imageDataSize = image_width * image_height * 3;
 8000fc8:	e0fffe17 	ldw	r3,-8(fp)
 8000fcc:	e0bfff17 	ldw	r2,-4(fp)
 8000fd0:	1809883a 	mov	r4,r3
 8000fd4:	100b883a 	mov	r5,r2
 8000fd8:	8001a6c0 	call	8001a6c <__mulsi3>
 8000fdc:	1007883a 	mov	r3,r2
 8000fe0:	1805883a 	mov	r2,r3
 8000fe4:	1085883a 	add	r2,r2,r2
 8000fe8:	10c5883a 	add	r2,r2,r3
 8000fec:	e0bfd315 	stw	r2,-180(fp)

	// Allocate memory for the image data
	UINT8 *data = (UINT8 *)malloc((imageDataSize + 10) * sizeof(UINT8));
 8000ff0:	e0bfd317 	ldw	r2,-180(fp)
 8000ff4:	10800284 	addi	r2,r2,10
 8000ff8:	1009883a 	mov	r4,r2
 8000ffc:	80037040 	call	8003704 <malloc>
 8001000:	e0bfd015 	stw	r2,-192(fp)
	if (!data)
 8001004:	e0bfd017 	ldw	r2,-192(fp)
 8001008:	10000e1e 	bne	r2,zero,8001044 <encode_image+0x158>
	{
		fprintf(stderr, "Memory allocation failed\n");
 800100c:	00820074 	movhi	r2,2049
 8001010:	10999c04 	addi	r2,r2,26224
 8001014:	10800017 	ldw	r2,0(r2)
 8001018:	10800317 	ldw	r2,12(r2)
 800101c:	01020074 	movhi	r4,2049
 8001020:	21111b04 	addi	r4,r4,17516
 8001024:	01400044 	movi	r5,1
 8001028:	01800644 	movi	r6,25
 800102c:	100f883a 	mov	r7,r2
 8001030:	800351c0 	call	800351c <fwrite>
		fclose(fpt);
 8001034:	e13fd217 	ldw	r4,-184(fp)
 8001038:	80020780 	call	8002078 <fclose>
		return 1;
 800103c:	00800044 	movi	r2,1
 8001040:	0000ed06 	br	80013f8 <encode_image+0x50c>
	}

	// Read the image data from the file from the beginning
	// fseek(fpt, fileHeader.bfOffBits, SEEK_SET);
	fread(data, 1, imageDataSize, fpt);
 8001044:	e0bfd317 	ldw	r2,-180(fp)
 8001048:	e13fd017 	ldw	r4,-192(fp)
 800104c:	01400044 	movi	r5,1
 8001050:	100d883a 	mov	r6,r2
 8001054:	e1ffd217 	ldw	r7,-184(fp)
 8001058:	80029640 	call	8002964 <fread>

	/* Initialization of JPEG control structure */
	initialization(jpeg_encoder_structure, image_width, image_height);
 800105c:	e0fffe17 	ldw	r3,-8(fp)
 8001060:	e0bfff17 	ldw	r2,-4(fp)
 8001064:	e13fd117 	ldw	r4,-188(fp)
 8001068:	180b883a 	mov	r5,r3
 800106c:	100d883a 	mov	r6,r2
 8001070:	8000cfc0 	call	8000cfc <initialization>

	// send data to stage 4
	temp = (jpeg_encoder_structure->vertical_mcus) * (jpeg_encoder_structure->horizontal_mcus);
 8001074:	e0bfd117 	ldw	r2,-188(fp)
 8001078:	1080018b 	ldhu	r2,6(r2)
 800107c:	10ffffcc 	andi	r3,r2,65535
 8001080:	e0bfd117 	ldw	r2,-188(fp)
 8001084:	1080010b 	ldhu	r2,4(r2)
 8001088:	10bfffcc 	andi	r2,r2,65535
 800108c:	1809883a 	mov	r4,r3
 8001090:	100b883a 	mov	r5,r2
 8001094:	8001a6c0 	call	8001a6c <__mulsi3>
 8001098:	e0bfda15 	stw	r2,-152(fp)
	WRITE_FIFO(&temp, IN_BASE_1to4, CONTROL_BASE_1to4);
 800109c:	e0bfda04 	addi	r2,fp,-152
 80010a0:	1009883a 	mov	r4,r2
 80010a4:	01440034 	movhi	r5,4096
 80010a8:	29444504 	addi	r5,r5,4372
 80010ac:	01840034 	movhi	r6,4096
 80010b0:	31842804 	addi	r6,r6,4256
 80010b4:	80001f40 	call	80001f4 <WRITE_FIFO>
	WRITE_FIFO(&quality_factor, IN_BASE_1to4, CONTROL_BASE_1to4);
 80010b8:	e0bffd04 	addi	r2,fp,-12
 80010bc:	1009883a 	mov	r4,r2
 80010c0:	01440034 	movhi	r5,4096
 80010c4:	29444504 	addi	r5,r5,4372
 80010c8:	01840034 	movhi	r6,4096
 80010cc:	31842804 	addi	r6,r6,4256
 80010d0:	80001f40 	call	80001f4 <WRITE_FIFO>

	/* Writing Marker Data */
	WRITE_FIFO(&image_width, IN_BASE_1to5, CONTROL_BASE_1to5);
 80010d4:	e0bffe04 	addi	r2,fp,-8
 80010d8:	1009883a 	mov	r4,r2
 80010dc:	01440034 	movhi	r5,4096
 80010e0:	29444404 	addi	r5,r5,4368
 80010e4:	01840034 	movhi	r6,4096
 80010e8:	31842004 	addi	r6,r6,4224
 80010ec:	80001f40 	call	80001f4 <WRITE_FIFO>
	WRITE_FIFO(&image_height, IN_BASE_1to5, CONTROL_BASE_1to5);
 80010f0:	e0bfff04 	addi	r2,fp,-4
 80010f4:	1009883a 	mov	r4,r2
 80010f8:	01440034 	movhi	r5,4096
 80010fc:	29444404 	addi	r5,r5,4368
 8001100:	01840034 	movhi	r6,4096
 8001104:	31842004 	addi	r6,r6,4224
 8001108:	80001f40 	call	80001f4 <WRITE_FIFO>
	WRITE_FIFO(&temp, IN_BASE_1to5, CONTROL_BASE_1to5);
 800110c:	e0bfda04 	addi	r2,fp,-152
 8001110:	1009883a 	mov	r4,r2
 8001114:	01440034 	movhi	r5,4096
 8001118:	29444404 	addi	r5,r5,4368
 800111c:	01840034 	movhi	r6,4096
 8001120:	31842004 	addi	r6,r6,4224
 8001124:	80001f40 	call	80001f4 <WRITE_FIFO>

	printf("Image Width: %d\n", *(&image_width));
 8001128:	e0bffe17 	ldw	r2,-8(fp)
 800112c:	01020074 	movhi	r4,2049
 8001130:	21112204 	addi	r4,r4,17544
 8001134:	100b883a 	mov	r5,r2
 8001138:	80041640 	call	8004164 <printf>
	printf("Image Height: %d\n", *(&image_height));
 800113c:	e0bfff17 	ldw	r2,-4(fp)
 8001140:	01020074 	movhi	r4,2049
 8001144:	21112704 	addi	r4,r4,17564
 8001148:	100b883a 	mov	r5,r2
 800114c:	80041640 	call	8004164 <printf>

	WRITE_FIFO_SUB(&temp, IN_BASE_1to2A, CONTROL_BASE_1to2A);
 8001150:	e0bfda04 	addi	r2,fp,-152
 8001154:	1009883a 	mov	r4,r2
 8001158:	01440034 	movhi	r5,4096
 800115c:	29444204 	addi	r5,r5,4360
 8001160:	01840034 	movhi	r6,4096
 8001164:	31841004 	addi	r6,r6,4160
 8001168:	80002580 	call	8000258 <WRITE_FIFO_SUB>
	WRITE_FIFO_SUB(&temp, IN_BASE_1to2B, CONTROL_BASE_1to2B);
 800116c:	e0bfda04 	addi	r2,fp,-152
 8001170:	1009883a 	mov	r4,r2
 8001174:	01440034 	movhi	r5,4096
 8001178:	29444104 	addi	r5,r5,4356
 800117c:	01840034 	movhi	r6,4096
 8001180:	31840804 	addi	r6,r6,4128
 8001184:	80002580 	call	8000258 <WRITE_FIFO_SUB>
	WRITE_FIFO_SUB(&temp, IN_BASE_1to2C, CONTROL_BASE_1to2C);
 8001188:	e0bfda04 	addi	r2,fp,-152
 800118c:	1009883a 	mov	r4,r2
 8001190:	01440034 	movhi	r5,4096
 8001194:	29444004 	addi	r5,r5,4352
 8001198:	01840034 	movhi	r6,4096
 800119c:	31840004 	addi	r6,r6,4096
 80011a0:	80002580 	call	8000258 <WRITE_FIFO_SUB>

	// print grid
	// print_grid(data, image_width, image_height);

	start_time = clock();
 80011a4:	8001ef00 	call	8001ef0 <clock>
 80011a8:	e0bfd415 	stw	r2,-176(fp)

	for (i = 1; i <= jpeg_encoder_structure->vertical_mcus; i++)
 80011ac:	00800044 	movi	r2,1
 80011b0:	e0bfcf0d 	sth	r2,-196(fp)
 80011b4:	00004606 	br	80012d0 <encode_image+0x3e4>
	{
		printf("Block Number - %d\n", i);
 80011b8:	e0bfcf0b 	ldhu	r2,-196(fp)
 80011bc:	01020074 	movhi	r4,2049
 80011c0:	21112c04 	addi	r4,r4,17584
 80011c4:	100b883a 	mov	r5,r2
 80011c8:	80041640 	call	8004164 <printf>

		if (i < jpeg_encoder_structure->vertical_mcus)
 80011cc:	e0bfd117 	ldw	r2,-188(fp)
 80011d0:	1080018b 	ldhu	r2,6(r2)
 80011d4:	10bfffcc 	andi	r2,r2,65535
 80011d8:	e0ffcf0b 	ldhu	r3,-196(fp)
 80011dc:	1880052e 	bgeu	r3,r2,80011f4 <encode_image+0x308>
			jpeg_encoder_structure->rows = jpeg_encoder_structure->mcu_height;
 80011e0:	e0bfd117 	ldw	r2,-188(fp)
 80011e4:	10c0008b 	ldhu	r3,2(r2)
 80011e8:	e0bfd117 	ldw	r2,-188(fp)
 80011ec:	10c0030d 	sth	r3,12(r2)
 80011f0:	00000406 	br	8001204 <encode_image+0x318>
		else
			jpeg_encoder_structure->rows = jpeg_encoder_structure->rows_in_bottom_mcus;
 80011f4:	e0bfd117 	ldw	r2,-188(fp)
 80011f8:	10c0028b 	ldhu	r3,10(r2)
 80011fc:	e0bfd117 	ldw	r2,-188(fp)
 8001200:	10c0030d 	sth	r3,12(r2)

		for (j = 1; j <= jpeg_encoder_structure->horizontal_mcus; j++)
 8001204:	00800044 	movi	r2,1
 8001208:	e0bfcf8d 	sth	r2,-194(fp)
 800120c:	00002206 	br	8001298 <encode_image+0x3ac>
		{
			if (j < jpeg_encoder_structure->horizontal_mcus)
 8001210:	e0bfd117 	ldw	r2,-188(fp)
 8001214:	1080010b 	ldhu	r2,4(r2)
 8001218:	10bfffcc 	andi	r2,r2,65535
 800121c:	e0ffcf8b 	ldhu	r3,-194(fp)
 8001220:	1880092e 	bgeu	r3,r2,8001248 <encode_image+0x35c>
			{
				jpeg_encoder_structure->cols = jpeg_encoder_structure->mcu_width;
 8001224:	e0bfd117 	ldw	r2,-188(fp)
 8001228:	10c0000b 	ldhu	r3,0(r2)
 800122c:	e0bfd117 	ldw	r2,-188(fp)
 8001230:	10c0038d 	sth	r3,14(r2)
				jpeg_encoder_structure->incr = jpeg_encoder_structure->length_minus_mcu_width;
 8001234:	e0bfd117 	ldw	r2,-188(fp)
 8001238:	10c0040b 	ldhu	r3,16(r2)
 800123c:	e0bfd117 	ldw	r2,-188(fp)
 8001240:	10c0050d 	sth	r3,20(r2)
 8001244:	00000806 	br	8001268 <encode_image+0x37c>
			}
			else
			{
				jpeg_encoder_structure->cols = jpeg_encoder_structure->cols_in_right_mcus;
 8001248:	e0bfd117 	ldw	r2,-188(fp)
 800124c:	10c0020b 	ldhu	r3,8(r2)
 8001250:	e0bfd117 	ldw	r2,-188(fp)
 8001254:	10c0038d 	sth	r3,14(r2)
				jpeg_encoder_structure->incr = jpeg_encoder_structure->length_minus_width;
 8001258:	e0bfd117 	ldw	r2,-188(fp)
 800125c:	10c0048b 	ldhu	r3,18(r2)
 8001260:	e0bfd117 	ldw	r2,-188(fp)
 8001264:	10c0050d 	sth	r3,20(r2)
			}

			// block_start_time = clock();
			read_444_format(jpeg_encoder_structure, data);
 8001268:	e13fd117 	ldw	r4,-188(fp)
 800126c:	e17fd017 	ldw	r5,-192(fp)
 8001270:	800039c0 	call	800039c <read_444_format>
			// block_end_time = clock();

			// double block_elapsed_time = (double)(block_end_time - block_start_time) / CLOCKS_PER_SEC;
			// fprintf(log_file, "Block (%d, %d) processing time: %f seconds\n", i, j, block_elapsed_time);

			data += jpeg_encoder_structure->mcu_width_size;
 8001274:	e0bfd117 	ldw	r2,-188(fp)
 8001278:	1080058b 	ldhu	r2,22(r2)
 800127c:	10bfffcc 	andi	r2,r2,65535
 8001280:	e0ffd017 	ldw	r3,-192(fp)
 8001284:	1885883a 	add	r2,r3,r2
 8001288:	e0bfd015 	stw	r2,-192(fp)
		if (i < jpeg_encoder_structure->vertical_mcus)
			jpeg_encoder_structure->rows = jpeg_encoder_structure->mcu_height;
		else
			jpeg_encoder_structure->rows = jpeg_encoder_structure->rows_in_bottom_mcus;

		for (j = 1; j <= jpeg_encoder_structure->horizontal_mcus; j++)
 800128c:	e0bfcf8b 	ldhu	r2,-194(fp)
 8001290:	10800044 	addi	r2,r2,1
 8001294:	e0bfcf8d 	sth	r2,-194(fp)
 8001298:	e0bfd117 	ldw	r2,-188(fp)
 800129c:	1080010b 	ldhu	r2,4(r2)
 80012a0:	10ffffcc 	andi	r3,r2,65535
 80012a4:	e0bfcf8b 	ldhu	r2,-194(fp)
 80012a8:	18bfd92e 	bgeu	r3,r2,8001210 <encode_image+0x324>

			data += jpeg_encoder_structure->mcu_width_size;
			// break;
		}

		data += jpeg_encoder_structure->offset;
 80012ac:	e0bfd117 	ldw	r2,-188(fp)
 80012b0:	1080060b 	ldhu	r2,24(r2)
 80012b4:	10bfffcc 	andi	r2,r2,65535
 80012b8:	e0ffd017 	ldw	r3,-192(fp)
 80012bc:	1885883a 	add	r2,r3,r2
 80012c0:	e0bfd015 	stw	r2,-192(fp)
	// print grid
	// print_grid(data, image_width, image_height);

	start_time = clock();

	for (i = 1; i <= jpeg_encoder_structure->vertical_mcus; i++)
 80012c4:	e0bfcf0b 	ldhu	r2,-196(fp)
 80012c8:	10800044 	addi	r2,r2,1
 80012cc:	e0bfcf0d 	sth	r2,-196(fp)
 80012d0:	e0bfd117 	ldw	r2,-188(fp)
 80012d4:	1080018b 	ldhu	r2,6(r2)
 80012d8:	10ffffcc 	andi	r3,r2,65535
 80012dc:	e0bfcf0b 	ldhu	r2,-196(fp)
 80012e0:	18bfb52e 	bgeu	r3,r2,80011b8 <encode_image+0x2cc>
		}

		data += jpeg_encoder_structure->offset;
	}

	end_time = clock();
 80012e4:	8001ef00 	call	8001ef0 <clock>
 80012e8:	e0bfd515 	stw	r2,-172(fp)

	WRITE_FIFO_SUB(0, IN_BASE_1to2A, CONTROL_BASE_1to2A);
 80012ec:	0009883a 	mov	r4,zero
 80012f0:	01440034 	movhi	r5,4096
 80012f4:	29444204 	addi	r5,r5,4360
 80012f8:	01840034 	movhi	r6,4096
 80012fc:	31841004 	addi	r6,r6,4160
 8001300:	80002580 	call	8000258 <WRITE_FIFO_SUB>
	WRITE_FIFO_SUB(0, IN_BASE_1to2B, CONTROL_BASE_1to2B);
 8001304:	0009883a 	mov	r4,zero
 8001308:	01440034 	movhi	r5,4096
 800130c:	29444104 	addi	r5,r5,4356
 8001310:	01840034 	movhi	r6,4096
 8001314:	31840804 	addi	r6,r6,4128
 8001318:	80002580 	call	8000258 <WRITE_FIFO_SUB>
	WRITE_FIFO_SUB(0, IN_BASE_1to2C, CONTROL_BASE_1to2C);
 800131c:	0009883a 	mov	r4,zero
 8001320:	01440034 	movhi	r5,4096
 8001324:	29444004 	addi	r5,r5,4352
 8001328:	01840034 	movhi	r6,4096
 800132c:	31840004 	addi	r6,r6,4096
 8001330:	80002580 	call	8000258 <WRITE_FIFO_SUB>

	double elapsed_time = (double)(end_time - start_time) / CLOCKS_PER_SEC;
 8001334:	e0ffd517 	ldw	r3,-172(fp)
 8001338:	e0bfd417 	ldw	r2,-176(fp)
 800133c:	1885c83a 	sub	r2,r3,r2
 8001340:	1009883a 	mov	r4,r2
 8001344:	80019500 	call	8001950 <__floatunsidf>
 8001348:	100b883a 	mov	r5,r2
 800134c:	180d883a 	mov	r6,r3
 8001350:	2809883a 	mov	r4,r5
 8001354:	300b883a 	mov	r5,r6
 8001358:	000d883a 	mov	r6,zero
 800135c:	01d023f4 	movhi	r7,16527
 8001360:	39d00004 	addi	r7,r7,16384
 8001364:	80016c80 	call	80016c8 <__divdf3>
 8001368:	1009883a 	mov	r4,r2
 800136c:	180b883a 	mov	r5,r3
 8001370:	e13fd615 	stw	r4,-168(fp)
 8001374:	e17fd715 	stw	r5,-164(fp)

	// Calculate the time taken for encoding in seconds

	// Calculate throughput in bytes per second
	double throughput = (double)imageDataSize / elapsed_time;
 8001378:	e13fd317 	ldw	r4,-180(fp)
 800137c:	800187c0 	call	800187c <__floatsidf>
 8001380:	100b883a 	mov	r5,r2
 8001384:	180d883a 	mov	r6,r3
 8001388:	2809883a 	mov	r4,r5
 800138c:	300b883a 	mov	r5,r6
 8001390:	e1bfd617 	ldw	r6,-168(fp)
 8001394:	e1ffd717 	ldw	r7,-164(fp)
 8001398:	80016c80 	call	80016c8 <__divdf3>
 800139c:	1009883a 	mov	r4,r2
 80013a0:	180b883a 	mov	r5,r3
 80013a4:	e13fd815 	stw	r4,-160(fp)
 80013a8:	e17fd915 	stw	r5,-156(fp)

	// Print the throughput
	// print the size
	printf("Image Size: %ld bytes\n", imageDataSize);
 80013ac:	01020074 	movhi	r4,2049
 80013b0:	21113104 	addi	r4,r4,17604
 80013b4:	e17fd317 	ldw	r5,-180(fp)
 80013b8:	80041640 	call	8004164 <printf>
	printf("Time taken for encoding: %f seconds\n", elapsed_time);
 80013bc:	01020074 	movhi	r4,2049
 80013c0:	21113704 	addi	r4,r4,17628
 80013c4:	e17fd617 	ldw	r5,-168(fp)
 80013c8:	e1bfd717 	ldw	r6,-164(fp)
 80013cc:	80041640 	call	8004164 <printf>
	printf("Throughput: %.2f bytes per second\n", throughput);
 80013d0:	01020074 	movhi	r4,2049
 80013d4:	21114104 	addi	r4,r4,17668
 80013d8:	e17fd817 	ldw	r5,-160(fp)
 80013dc:	e1bfd917 	ldw	r6,-156(fp)
 80013e0:	80041640 	call	8004164 <printf>

	free(data);
 80013e4:	e13fd017 	ldw	r4,-192(fp)
 80013e8:	80037180 	call	8003718 <free>
	fclose(fpt);
 80013ec:	e13fd217 	ldw	r4,-184(fp)
 80013f0:	80020780 	call	8002078 <fclose>
	// fclose(log_file);

	return 0;
 80013f4:	0005883a 	mov	r2,zero
}
 80013f8:	e037883a 	mov	sp,fp
 80013fc:	dfc00117 	ldw	ra,4(sp)
 8001400:	df000017 	ldw	fp,0(sp)
 8001404:	dec00204 	addi	sp,sp,8
 8001408:	f800283a 	ret

0800140c <main>:
#include "datatype.h"
#include "encoder.h"
#include "FIFO.h"

int main(int argc, char *argv[])
{
 800140c:	deffce04 	addi	sp,sp,-200
 8001410:	dfc03115 	stw	ra,196(sp)
 8001414:	df003015 	stw	fp,192(sp)
 8001418:	df003004 	addi	fp,sp,192
 800141c:	e13ffe15 	stw	r4,-8(fp)
 8001420:	e17fff15 	stw	r5,-4(fp)

	INT8 input_file_name[150];
	FILE *fp;
	UINT32 quality_factor, image_width, image_height;

	delay(100000);
 8001424:	010000b4 	movhi	r4,2
 8001428:	2121a804 	addi	r4,r4,-31072
 800142c:	800035c0 	call	800035c <delay>
	FIFO_INIT(CONTROL_BASE_1to2A);
 8001430:	01040034 	movhi	r4,4096
 8001434:	21041004 	addi	r4,r4,4160
 8001438:	800031c0 	call	800031c <FIFO_INIT>
	delay(100000);
 800143c:	010000b4 	movhi	r4,2
 8001440:	2121a804 	addi	r4,r4,-31072
 8001444:	800035c0 	call	800035c <delay>
	FIFO_INIT(CONTROL_BASE_1to2B);
 8001448:	01040034 	movhi	r4,4096
 800144c:	21040804 	addi	r4,r4,4128
 8001450:	800031c0 	call	800031c <FIFO_INIT>
	delay(100000);
 8001454:	010000b4 	movhi	r4,2
 8001458:	2121a804 	addi	r4,r4,-31072
 800145c:	800035c0 	call	800035c <delay>
	FIFO_INIT(CONTROL_BASE_1to2C);
 8001460:	01040034 	movhi	r4,4096
 8001464:	21040004 	addi	r4,r4,4096
 8001468:	800031c0 	call	800031c <FIFO_INIT>
	delay(100000);
 800146c:	010000b4 	movhi	r4,2
 8001470:	2121a804 	addi	r4,r4,-31072
 8001474:	800035c0 	call	800035c <delay>
	FIFO_INIT(CONTROL_BASE_1to4);
 8001478:	01040034 	movhi	r4,4096
 800147c:	21042804 	addi	r4,r4,4256
 8001480:	800031c0 	call	800031c <FIFO_INIT>
	delay(100000);
 8001484:	010000b4 	movhi	r4,2
 8001488:	2121a804 	addi	r4,r4,-31072
 800148c:	800035c0 	call	800035c <delay>
	FIFO_INIT(CONTROL_BASE_1to5);
 8001490:	01040034 	movhi	r4,4096
 8001494:	21042004 	addi	r4,r4,4224
 8001498:	800031c0 	call	800031c <FIFO_INIT>
	delay(100000);
 800149c:	010000b4 	movhi	r4,2
 80014a0:	2121a804 	addi	r4,r4,-31072
 80014a4:	800035c0 	call	800035c <delay>
	FIFO_INIT(CONTROL_BASE_1to6);
 80014a8:	01040034 	movhi	r4,4096
 80014ac:	21041804 	addi	r4,r4,4192
 80014b0:	800031c0 	call	800031c <FIFO_INIT>
	delay(100000);
 80014b4:	010000b4 	movhi	r4,2
 80014b8:	2121a804 	addi	r4,r4,-31072
 80014bc:	800035c0 	call	800035c <delay>

	printf("Starting CPU1\n");
 80014c0:	01020074 	movhi	r4,2049
 80014c4:	21114a04 	addi	r4,r4,17704
 80014c8:	80042480 	call	8004248 <puts>

	fp = fopen("/mnt/host/files/param.txt", "r");
 80014cc:	01020074 	movhi	r4,2049
 80014d0:	21114e04 	addi	r4,r4,17720
 80014d4:	01420074 	movhi	r5,2049
 80014d8:	29515504 	addi	r5,r5,17748
 80014dc:	80026c00 	call	80026c0 <fopen>
 80014e0:	e0bfd315 	stw	r2,-180(fp)

	if (fp == NULL)
 80014e4:	e0bfd317 	ldw	r2,-180(fp)
 80014e8:	10000c1e 	bne	r2,zero,800151c <main+0x110>
	{
		fprintf(stderr, "Error opening parameter file\n");
 80014ec:	00820074 	movhi	r2,2049
 80014f0:	10999c04 	addi	r2,r2,26224
 80014f4:	10800017 	ldw	r2,0(r2)
 80014f8:	10800317 	ldw	r2,12(r2)
 80014fc:	01020074 	movhi	r4,2049
 8001500:	21115604 	addi	r4,r4,17752
 8001504:	01400044 	movi	r5,1
 8001508:	01800744 	movi	r6,29
 800150c:	100f883a 	mov	r7,r2
 8001510:	800351c0 	call	800351c <fwrite>
		return 1;
 8001514:	00800044 	movi	r2,1
 8001518:	00006606 	br	80016b4 <main+0x2a8>
	}

	int img_count = 0;
 800151c:	e03fd115 	stw	zero,-188(fp)

	while (fscanf(fp, "%s", input_file_name) != EOF)
 8001520:	00005606 	br	800167c <main+0x270>
	{

		printf("\nReading from file: %s\n", input_file_name);
 8001524:	e0bfd404 	addi	r2,fp,-176
 8001528:	01020074 	movhi	r4,2049
 800152c:	21115e04 	addi	r4,r4,17784
 8001530:	100b883a 	mov	r5,r2
 8001534:	80041640 	call	8004164 <printf>

		fscanf(fp, "%d", &quality_factor);
 8001538:	e0bffa04 	addi	r2,fp,-24
 800153c:	e13fd317 	ldw	r4,-180(fp)
 8001540:	01420074 	movhi	r5,2049
 8001544:	29516404 	addi	r5,r5,17808
 8001548:	100d883a 	mov	r6,r2
 800154c:	8002db00 	call	8002db0 <fscanf>
		fscanf(fp, "%d", &image_width);
 8001550:	e0bffb04 	addi	r2,fp,-20
 8001554:	e13fd317 	ldw	r4,-180(fp)
 8001558:	01420074 	movhi	r5,2049
 800155c:	29516404 	addi	r5,r5,17808
 8001560:	100d883a 	mov	r6,r2
 8001564:	8002db00 	call	8002db0 <fscanf>
		fscanf(fp, "%d", &image_height);
 8001568:	e0bffc04 	addi	r2,fp,-16
 800156c:	e13fd317 	ldw	r4,-180(fp)
 8001570:	01420074 	movhi	r5,2049
 8001574:	29516404 	addi	r5,r5,17808
 8001578:	100d883a 	mov	r6,r2
 800157c:	8002db00 	call	8002db0 <fscanf>

		printf("Quality Factor: %d\n", quality_factor);
 8001580:	e0bffa17 	ldw	r2,-24(fp)
 8001584:	01020074 	movhi	r4,2049
 8001588:	21116504 	addi	r4,r4,17812
 800158c:	100b883a 	mov	r5,r2
 8001590:	80041640 	call	8004164 <printf>
		printf("Image Width: %d\n", image_width);
 8001594:	e0bffb17 	ldw	r2,-20(fp)
 8001598:	01020074 	movhi	r4,2049
 800159c:	21112204 	addi	r4,r4,17544
 80015a0:	100b883a 	mov	r5,r2
 80015a4:	80041640 	call	8004164 <printf>
		printf("Image Height: %d\n", image_height);
 80015a8:	e0bffc17 	ldw	r2,-16(fp)
 80015ac:	01020074 	movhi	r4,2049
 80015b0:	21112704 	addi	r4,r4,17564
 80015b4:	100b883a 	mov	r5,r2
 80015b8:	80041640 	call	8004164 <printf>

		// send the name to cpu6
		INT8 out;
		INT8 *filename = input_file_name;
 80015bc:	e0bfd404 	addi	r2,fp,-176
 80015c0:	e0bfd215 	stw	r2,-184(fp)
		while (*filename != '\0')
 80015c4:	00000d06 	br	80015fc <main+0x1f0>
		{
			out = *filename;
 80015c8:	e0bfd217 	ldw	r2,-184(fp)
 80015cc:	10800003 	ldbu	r2,0(r2)
 80015d0:	e0bffd05 	stb	r2,-12(fp)
			WRITE_FIFO(&out, IN_BASE_1to6, CONTROL_BASE_1to6);
 80015d4:	e0bffd04 	addi	r2,fp,-12
 80015d8:	1009883a 	mov	r4,r2
 80015dc:	01440034 	movhi	r5,4096
 80015e0:	29444304 	addi	r5,r5,4364
 80015e4:	01840034 	movhi	r6,4096
 80015e8:	31841804 	addi	r6,r6,4192
 80015ec:	80001f40 	call	80001f4 <WRITE_FIFO>
			filename++;
 80015f0:	e0bfd217 	ldw	r2,-184(fp)
 80015f4:	10800044 	addi	r2,r2,1
 80015f8:	e0bfd215 	stw	r2,-184(fp)
		printf("Image Height: %d\n", image_height);

		// send the name to cpu6
		INT8 out;
		INT8 *filename = input_file_name;
		while (*filename != '\0')
 80015fc:	e0bfd217 	ldw	r2,-184(fp)
 8001600:	10800003 	ldbu	r2,0(r2)
 8001604:	10803fcc 	andi	r2,r2,255
 8001608:	1080201c 	xori	r2,r2,128
 800160c:	10bfe004 	addi	r2,r2,-128
 8001610:	103fed1e 	bne	r2,zero,80015c8 <main+0x1bc>
		{
			out = *filename;
			WRITE_FIFO(&out, IN_BASE_1to6, CONTROL_BASE_1to6);
			filename++;
		}
		out = '\0';
 8001614:	e03ffd05 	stb	zero,-12(fp)
		WRITE_FIFO(&out, IN_BASE_1to6, CONTROL_BASE_1to6);
 8001618:	e0bffd04 	addi	r2,fp,-12
 800161c:	1009883a 	mov	r4,r2
 8001620:	01440034 	movhi	r5,4096
 8001624:	29444304 	addi	r5,r5,4364
 8001628:	01840034 	movhi	r6,4096
 800162c:	31841804 	addi	r6,r6,4192
 8001630:	80001f40 	call	80001f4 <WRITE_FIFO>

		printf("Name Send\n");
 8001634:	01020074 	movhi	r4,2049
 8001638:	21116a04 	addi	r4,r4,17832
 800163c:	80042480 	call	8004248 <puts>

		encode_image(input_file_name, quality_factor, image_width, image_height, img_count);
 8001640:	e17ffa17 	ldw	r5,-24(fp)
 8001644:	e0fffb17 	ldw	r3,-20(fp)
 8001648:	e0bffc17 	ldw	r2,-16(fp)
 800164c:	e1bfd117 	ldw	r6,-188(fp)
 8001650:	e13fd404 	addi	r4,fp,-176
 8001654:	d9800015 	stw	r6,0(sp)
 8001658:	180d883a 	mov	r6,r3
 800165c:	100f883a 	mov	r7,r2
 8001660:	8000eec0 	call	8000eec <encode_image>

		printf("End of the Image!\n");
 8001664:	01020074 	movhi	r4,2049
 8001668:	21116d04 	addi	r4,r4,17844
 800166c:	80042480 	call	8004248 <puts>

		img_count++;
 8001670:	e0bfd117 	ldw	r2,-188(fp)
 8001674:	10800044 	addi	r2,r2,1
 8001678:	e0bfd115 	stw	r2,-188(fp)
		return 1;
	}

	int img_count = 0;

	while (fscanf(fp, "%s", input_file_name) != EOF)
 800167c:	e0bfd404 	addi	r2,fp,-176
 8001680:	e13fd317 	ldw	r4,-180(fp)
 8001684:	01420074 	movhi	r5,2049
 8001688:	29517204 	addi	r5,r5,17864
 800168c:	100d883a 	mov	r6,r2
 8001690:	8002db00 	call	8002db0 <fscanf>
 8001694:	10bfffd8 	cmpnei	r2,r2,-1
 8001698:	103fa21e 	bne	r2,zero,8001524 <main+0x118>
		printf("End of the Image!\n");

		img_count++;
	}

	fclose(fp);
 800169c:	e13fd317 	ldw	r4,-180(fp)
 80016a0:	80020780 	call	8002078 <fclose>

	printf("\nDone!\n");
 80016a4:	01020074 	movhi	r4,2049
 80016a8:	21117304 	addi	r4,r4,17868
 80016ac:	80042480 	call	8004248 <puts>

	return 0;
 80016b0:	0005883a 	mov	r2,zero
}
 80016b4:	e037883a 	mov	sp,fp
 80016b8:	dfc00117 	ldw	ra,4(sp)
 80016bc:	df000017 	ldw	fp,0(sp)
 80016c0:	dec00204 	addi	sp,sp,8
 80016c4:	f800283a 	ret

080016c8 <__divdf3>:
 80016c8:	defff104 	addi	sp,sp,-60
 80016cc:	d9000c15 	stw	r4,48(sp)
 80016d0:	d9400d15 	stw	r5,52(sp)
 80016d4:	d9000c04 	addi	r4,sp,48
 80016d8:	d9400504 	addi	r5,sp,20
 80016dc:	dfc00e15 	stw	ra,56(sp)
 80016e0:	d9800a15 	stw	r6,40(sp)
 80016e4:	d9c00b15 	stw	r7,44(sp)
 80016e8:	8001d640 	call	8001d64 <__unpack_d>
 80016ec:	d9000a04 	addi	r4,sp,40
 80016f0:	d80b883a 	mov	r5,sp
 80016f4:	8001d640 	call	8001d64 <__unpack_d>
 80016f8:	d8c00517 	ldw	r3,20(sp)
 80016fc:	00800044 	movi	r2,1
 8001700:	10c00536 	bltu	r2,r3,8001718 <__divdf3+0x50>
 8001704:	d9000504 	addi	r4,sp,20
 8001708:	8001b400 	call	8001b40 <__pack_d>
 800170c:	dfc00e17 	ldw	ra,56(sp)
 8001710:	dec00f04 	addi	sp,sp,60
 8001714:	f800283a 	ret
 8001718:	d9000017 	ldw	r4,0(sp)
 800171c:	11000536 	bltu	r2,r4,8001734 <__divdf3+0x6c>
 8001720:	d809883a 	mov	r4,sp
 8001724:	8001b400 	call	8001b40 <__pack_d>
 8001728:	dfc00e17 	ldw	ra,56(sp)
 800172c:	dec00f04 	addi	sp,sp,60
 8001730:	f800283a 	ret
 8001734:	d9800617 	ldw	r6,24(sp)
 8001738:	d9400117 	ldw	r5,4(sp)
 800173c:	00800104 	movi	r2,4
 8001740:	314af03a 	xor	r5,r6,r5
 8001744:	d9400615 	stw	r5,24(sp)
 8001748:	18800226 	beq	r3,r2,8001754 <__divdf3+0x8c>
 800174c:	01400084 	movi	r5,2
 8001750:	1940041e 	bne	r3,r5,8001764 <__divdf3+0x9c>
 8001754:	193feb1e 	bne	r3,r4,8001704 <__divdf3+0x3c>
 8001758:	01020074 	movhi	r4,2049
 800175c:	21117504 	addi	r4,r4,17876
 8001760:	003fe906 	br	8001708 <__divdf3+0x40>
 8001764:	20803326 	beq	r4,r2,8001834 <__divdf3+0x16c>
 8001768:	21403726 	beq	r4,r5,8001848 <__divdf3+0x180>
 800176c:	d8800217 	ldw	r2,8(sp)
 8001770:	d9000717 	ldw	r4,28(sp)
 8001774:	d8c00917 	ldw	r3,36(sp)
 8001778:	da000417 	ldw	r8,16(sp)
 800177c:	2089c83a 	sub	r4,r4,r2
 8001780:	d9000715 	stw	r4,28(sp)
 8001784:	d8800817 	ldw	r2,32(sp)
 8001788:	dbc00317 	ldw	r15,12(sp)
 800178c:	1a000236 	bltu	r3,r8,8001798 <__divdf3+0xd0>
 8001790:	40c0081e 	bne	r8,r3,80017b4 <__divdf3+0xec>
 8001794:	13c0072e 	bgeu	r2,r15,80017b4 <__divdf3+0xec>
 8001798:	108b883a 	add	r5,r2,r2
 800179c:	288d803a 	cmpltu	r6,r5,r2
 80017a0:	18c7883a 	add	r3,r3,r3
 80017a4:	213fffc4 	addi	r4,r4,-1
 80017a8:	2805883a 	mov	r2,r5
 80017ac:	30c7883a 	add	r3,r6,r3
 80017b0:	d9000715 	stw	r4,28(sp)
 80017b4:	01400f44 	movi	r5,61
 80017b8:	000f883a 	mov	r7,zero
 80017bc:	01040034 	movhi	r4,4096
 80017c0:	0019883a 	mov	r12,zero
 80017c4:	001b883a 	mov	r13,zero
 80017c8:	201697fa 	slli	r11,r4,31
 80017cc:	3814d07a 	srli	r10,r7,1
 80017d0:	297fffc4 	addi	r5,r5,-1
 80017d4:	1a000936 	bltu	r3,r8,80017fc <__divdf3+0x134>
 80017d8:	13cdc83a 	sub	r6,r2,r15
 80017dc:	1193803a 	cmpltu	r9,r2,r6
 80017e0:	1a1dc83a 	sub	r14,r3,r8
 80017e4:	40c0011e 	bne	r8,r3,80017ec <__divdf3+0x124>
 80017e8:	13c00436 	bltu	r2,r15,80017fc <__divdf3+0x134>
 80017ec:	3005883a 	mov	r2,r6
 80017f0:	7247c83a 	sub	r3,r14,r9
 80017f4:	61d8b03a 	or	r12,r12,r7
 80017f8:	691ab03a 	or	r13,r13,r4
 80017fc:	108d883a 	add	r6,r2,r2
 8001800:	3093803a 	cmpltu	r9,r6,r2
 8001804:	18c7883a 	add	r3,r3,r3
 8001808:	5a8eb03a 	or	r7,r11,r10
 800180c:	2008d07a 	srli	r4,r4,1
 8001810:	3005883a 	mov	r2,r6
 8001814:	48c7883a 	add	r3,r9,r3
 8001818:	283feb1e 	bne	r5,zero,80017c8 <__divdf3+0x100>
 800181c:	61003fcc 	andi	r4,r12,255
 8001820:	01402004 	movi	r5,128
 8001824:	21400b26 	beq	r4,r5,8001854 <__divdf3+0x18c>
 8001828:	db000815 	stw	r12,32(sp)
 800182c:	db400915 	stw	r13,36(sp)
 8001830:	003fb406 	br	8001704 <__divdf3+0x3c>
 8001834:	d8000815 	stw	zero,32(sp)
 8001838:	d8000915 	stw	zero,36(sp)
 800183c:	d8000715 	stw	zero,28(sp)
 8001840:	d9000504 	addi	r4,sp,20
 8001844:	003fb006 	br	8001708 <__divdf3+0x40>
 8001848:	d8800515 	stw	r2,20(sp)
 800184c:	d9000504 	addi	r4,sp,20
 8001850:	003fad06 	br	8001708 <__divdf3+0x40>
 8001854:	6140400c 	andi	r5,r12,256
 8001858:	283ff31e 	bne	r5,zero,8001828 <__divdf3+0x160>
 800185c:	30c4b03a 	or	r2,r6,r3
 8001860:	103ff126 	beq	r2,zero,8001828 <__divdf3+0x160>
 8001864:	6109883a 	add	r4,r12,r4
 8001868:	2305803a 	cmpltu	r2,r4,r12
 800186c:	033fc004 	movi	r12,-256
 8001870:	2318703a 	and	r12,r4,r12
 8001874:	135b883a 	add	r13,r2,r13
 8001878:	003feb06 	br	8001828 <__divdf3+0x160>

0800187c <__floatsidf>:
 800187c:	2004d7fa 	srli	r2,r4,31
 8001880:	defff904 	addi	sp,sp,-28
 8001884:	00c000c4 	movi	r3,3
 8001888:	dfc00615 	stw	ra,24(sp)
 800188c:	dc000515 	stw	r16,20(sp)
 8001890:	d8c00015 	stw	r3,0(sp)
 8001894:	d8800115 	stw	r2,4(sp)
 8001898:	2000081e 	bne	r4,zero,80018bc <__floatsidf+0x40>
 800189c:	00800084 	movi	r2,2
 80018a0:	d8800015 	stw	r2,0(sp)
 80018a4:	d809883a 	mov	r4,sp
 80018a8:	8001b400 	call	8001b40 <__pack_d>
 80018ac:	dfc00617 	ldw	ra,24(sp)
 80018b0:	dc000517 	ldw	r16,20(sp)
 80018b4:	dec00704 	addi	sp,sp,28
 80018b8:	f800283a 	ret
 80018bc:	00c00f04 	movi	r3,60
 80018c0:	d8c00215 	stw	r3,8(sp)
 80018c4:	10000f1e 	bne	r2,zero,8001904 <__floatsidf+0x88>
 80018c8:	2021883a 	mov	r16,r4
 80018cc:	8009883a 	mov	r4,r16
 80018d0:	8001a940 	call	8001a94 <__clzsi2>
 80018d4:	11000744 	addi	r4,r2,29
 80018d8:	0100110e 	bge	zero,r4,8001920 <__floatsidf+0xa4>
 80018dc:	10ffff44 	addi	r3,r2,-3
 80018e0:	18001216 	blt	r3,zero,800192c <__floatsidf+0xb0>
 80018e4:	80c6983a 	sll	r3,r16,r3
 80018e8:	0009883a 	mov	r4,zero
 80018ec:	014007c4 	movi	r5,31
 80018f0:	2885c83a 	sub	r2,r5,r2
 80018f4:	d9000315 	stw	r4,12(sp)
 80018f8:	d8c00415 	stw	r3,16(sp)
 80018fc:	d8800215 	stw	r2,8(sp)
 8001900:	003fe806 	br	80018a4 <__floatsidf+0x28>
 8001904:	00a00034 	movhi	r2,32768
 8001908:	20800e26 	beq	r4,r2,8001944 <__floatsidf+0xc8>
 800190c:	0121c83a 	sub	r16,zero,r4
 8001910:	8009883a 	mov	r4,r16
 8001914:	8001a940 	call	8001a94 <__clzsi2>
 8001918:	11000744 	addi	r4,r2,29
 800191c:	013fef16 	blt	zero,r4,80018dc <__floatsidf+0x60>
 8001920:	dc000315 	stw	r16,12(sp)
 8001924:	d8000415 	stw	zero,16(sp)
 8001928:	003fde06 	br	80018a4 <__floatsidf+0x28>
 800192c:	800ad07a 	srli	r5,r16,1
 8001930:	00c007c4 	movi	r3,31
 8001934:	1907c83a 	sub	r3,r3,r4
 8001938:	28c6d83a 	srl	r3,r5,r3
 800193c:	8108983a 	sll	r4,r16,r4
 8001940:	003fea06 	br	80018ec <__floatsidf+0x70>
 8001944:	0005883a 	mov	r2,zero
 8001948:	00f07834 	movhi	r3,49632
 800194c:	003fd706 	br	80018ac <__floatsidf+0x30>

08001950 <__floatunsidf>:
 8001950:	defff904 	addi	sp,sp,-28
 8001954:	dc000515 	stw	r16,20(sp)
 8001958:	dfc00615 	stw	ra,24(sp)
 800195c:	d8000115 	stw	zero,4(sp)
 8001960:	2021883a 	mov	r16,r4
 8001964:	20001726 	beq	r4,zero,80019c4 <__floatunsidf+0x74>
 8001968:	008000c4 	movi	r2,3
 800196c:	d8800015 	stw	r2,0(sp)
 8001970:	00800f04 	movi	r2,60
 8001974:	d8800215 	stw	r2,8(sp)
 8001978:	8001a940 	call	8001a94 <__clzsi2>
 800197c:	10c00744 	addi	r3,r2,29
 8001980:	18001816 	blt	r3,zero,80019e4 <__floatunsidf+0x94>
 8001984:	18002d26 	beq	r3,zero,8001a3c <__floatunsidf+0xec>
 8001988:	113fff44 	addi	r4,r2,-3
 800198c:	20002e16 	blt	r4,zero,8001a48 <__floatunsidf+0xf8>
 8001990:	8108983a 	sll	r4,r16,r4
 8001994:	0021883a 	mov	r16,zero
 8001998:	014007c4 	movi	r5,31
 800199c:	2885c83a 	sub	r2,r5,r2
 80019a0:	dc000315 	stw	r16,12(sp)
 80019a4:	d9000415 	stw	r4,16(sp)
 80019a8:	d8800215 	stw	r2,8(sp)
 80019ac:	d809883a 	mov	r4,sp
 80019b0:	8001b400 	call	8001b40 <__pack_d>
 80019b4:	dfc00617 	ldw	ra,24(sp)
 80019b8:	dc000517 	ldw	r16,20(sp)
 80019bc:	dec00704 	addi	sp,sp,28
 80019c0:	f800283a 	ret
 80019c4:	00800084 	movi	r2,2
 80019c8:	d809883a 	mov	r4,sp
 80019cc:	d8800015 	stw	r2,0(sp)
 80019d0:	8001b400 	call	8001b40 <__pack_d>
 80019d4:	dfc00617 	ldw	ra,24(sp)
 80019d8:	dc000517 	ldw	r16,20(sp)
 80019dc:	dec00704 	addi	sp,sp,28
 80019e0:	f800283a 	ret
 80019e4:	00c7c83a 	sub	r3,zero,r3
 80019e8:	193ff804 	addi	r4,r3,-32
 80019ec:	20001c16 	blt	r4,zero,8001a60 <__floatunsidf+0x110>
 80019f0:	000b883a 	mov	r5,zero
 80019f4:	2009d7fa 	srai	r4,r4,31
 80019f8:	80c6d83a 	srl	r3,r16,r3
 80019fc:	297fffc4 	addi	r5,r5,-1
 8001a00:	2c20703a 	and	r16,r5,r16
 8001a04:	8020c03a 	cmpne	r16,r16,zero
 8001a08:	1906703a 	and	r3,r3,r4
 8001a0c:	010007c4 	movi	r4,31
 8001a10:	80c6b03a 	or	r3,r16,r3
 8001a14:	2085c83a 	sub	r2,r4,r2
 8001a18:	d809883a 	mov	r4,sp
 8001a1c:	d8c00315 	stw	r3,12(sp)
 8001a20:	d8000415 	stw	zero,16(sp)
 8001a24:	d8800215 	stw	r2,8(sp)
 8001a28:	8001b400 	call	8001b40 <__pack_d>
 8001a2c:	dfc00617 	ldw	ra,24(sp)
 8001a30:	dc000517 	ldw	r16,20(sp)
 8001a34:	dec00704 	addi	sp,sp,28
 8001a38:	f800283a 	ret
 8001a3c:	dc000315 	stw	r16,12(sp)
 8001a40:	d8000415 	stw	zero,16(sp)
 8001a44:	003fd906 	br	80019ac <__floatunsidf+0x5c>
 8001a48:	800ad07a 	srli	r5,r16,1
 8001a4c:	010007c4 	movi	r4,31
 8001a50:	20c9c83a 	sub	r4,r4,r3
 8001a54:	2908d83a 	srl	r4,r5,r4
 8001a58:	80e0983a 	sll	r16,r16,r3
 8001a5c:	003fce06 	br	8001998 <__floatunsidf+0x48>
 8001a60:	01400044 	movi	r5,1
 8001a64:	28ca983a 	sll	r5,r5,r3
 8001a68:	003fe206 	br	80019f4 <__floatunsidf+0xa4>

08001a6c <__mulsi3>:
 8001a6c:	0005883a 	mov	r2,zero
 8001a70:	20000726 	beq	r4,zero,8001a90 <__mulsi3+0x24>
 8001a74:	20c0004c 	andi	r3,r4,1
 8001a78:	2008d07a 	srli	r4,r4,1
 8001a7c:	18000126 	beq	r3,zero,8001a84 <__mulsi3+0x18>
 8001a80:	1145883a 	add	r2,r2,r5
 8001a84:	294b883a 	add	r5,r5,r5
 8001a88:	203ffa1e 	bne	r4,zero,8001a74 <__mulsi3+0x8>
 8001a8c:	f800283a 	ret
 8001a90:	f800283a 	ret

08001a94 <__clzsi2>:
 8001a94:	00bfffd4 	movui	r2,65535
 8001a98:	11000b36 	bltu	r2,r4,8001ac8 <__clzsi2+0x34>
 8001a9c:	00803fc4 	movi	r2,255
 8001aa0:	11001e2e 	bgeu	r2,r4,8001b1c <__clzsi2+0x88>
 8001aa4:	00c00204 	movi	r3,8
 8001aa8:	20c8d83a 	srl	r4,r4,r3
 8001aac:	00c20074 	movhi	r3,2049
 8001ab0:	18d17a04 	addi	r3,r3,17896
 8001ab4:	00800604 	movi	r2,24
 8001ab8:	1909883a 	add	r4,r3,r4
 8001abc:	20c00003 	ldbu	r3,0(r4)
 8001ac0:	10c5c83a 	sub	r2,r2,r3
 8001ac4:	f800283a 	ret
 8001ac8:	00804034 	movhi	r2,256
 8001acc:	10bfffc4 	addi	r2,r2,-1
 8001ad0:	11000936 	bltu	r2,r4,8001af8 <__clzsi2+0x64>
 8001ad4:	00800404 	movi	r2,16
 8001ad8:	1007883a 	mov	r3,r2
 8001adc:	20c8d83a 	srl	r4,r4,r3
 8001ae0:	00c20074 	movhi	r3,2049
 8001ae4:	18d17a04 	addi	r3,r3,17896
 8001ae8:	1909883a 	add	r4,r3,r4
 8001aec:	20c00003 	ldbu	r3,0(r4)
 8001af0:	10c5c83a 	sub	r2,r2,r3
 8001af4:	f800283a 	ret
 8001af8:	00c00604 	movi	r3,24
 8001afc:	20c8d83a 	srl	r4,r4,r3
 8001b00:	00c20074 	movhi	r3,2049
 8001b04:	18d17a04 	addi	r3,r3,17896
 8001b08:	00800204 	movi	r2,8
 8001b0c:	1909883a 	add	r4,r3,r4
 8001b10:	20c00003 	ldbu	r3,0(r4)
 8001b14:	10c5c83a 	sub	r2,r2,r3
 8001b18:	f800283a 	ret
 8001b1c:	0007883a 	mov	r3,zero
 8001b20:	20c8d83a 	srl	r4,r4,r3
 8001b24:	00c20074 	movhi	r3,2049
 8001b28:	18d17a04 	addi	r3,r3,17896
 8001b2c:	00800804 	movi	r2,32
 8001b30:	1909883a 	add	r4,r3,r4
 8001b34:	20c00003 	ldbu	r3,0(r4)
 8001b38:	10c5c83a 	sub	r2,r2,r3
 8001b3c:	f800283a 	ret

08001b40 <__pack_d>:
 8001b40:	20800017 	ldw	r2,0(r4)
 8001b44:	defff804 	addi	sp,sp,-32
 8001b48:	dcc00315 	stw	r19,12(sp)
 8001b4c:	dc800215 	stw	r18,8(sp)
 8001b50:	dfc00715 	stw	ra,28(sp)
 8001b54:	dd800615 	stw	r22,24(sp)
 8001b58:	dd400515 	stw	r21,20(sp)
 8001b5c:	dd000415 	stw	r20,16(sp)
 8001b60:	dc400115 	stw	r17,4(sp)
 8001b64:	dc000015 	stw	r16,0(sp)
 8001b68:	04800044 	movi	r18,1
 8001b6c:	24400317 	ldw	r17,12(r4)
 8001b70:	24000417 	ldw	r16,16(r4)
 8001b74:	24c00117 	ldw	r19,4(r4)
 8001b78:	9080422e 	bgeu	r18,r2,8001c84 <__pack_d+0x144>
 8001b7c:	00c00104 	movi	r3,4
 8001b80:	10c03c26 	beq	r2,r3,8001c74 <__pack_d+0x134>
 8001b84:	00c00084 	movi	r3,2
 8001b88:	10c01926 	beq	r2,r3,8001bf0 <__pack_d+0xb0>
 8001b8c:	8c04b03a 	or	r2,r17,r16
 8001b90:	10001726 	beq	r2,zero,8001bf0 <__pack_d+0xb0>
 8001b94:	21000217 	ldw	r4,8(r4)
 8001b98:	00bf0084 	movi	r2,-1022
 8001b9c:	20804016 	blt	r4,r2,8001ca0 <__pack_d+0x160>
 8001ba0:	0080ffc4 	movi	r2,1023
 8001ba4:	11003316 	blt	r2,r4,8001c74 <__pack_d+0x134>
 8001ba8:	88803fcc 	andi	r2,r17,255
 8001bac:	00c02004 	movi	r3,128
 8001bb0:	10c02926 	beq	r2,r3,8001c58 <__pack_d+0x118>
 8001bb4:	88801fc4 	addi	r2,r17,127
 8001bb8:	1463803a 	cmpltu	r17,r2,r17
 8001bbc:	8c21883a 	add	r16,r17,r16
 8001bc0:	1023883a 	mov	r17,r2
 8001bc4:	00880034 	movhi	r2,8192
 8001bc8:	10bfffc4 	addi	r2,r2,-1
 8001bcc:	14001c36 	bltu	r2,r16,8001c40 <__pack_d+0x100>
 8001bd0:	2100ffc4 	addi	r4,r4,1023
 8001bd4:	8006963a 	slli	r3,r16,24
 8001bd8:	8804d23a 	srli	r2,r17,8
 8001bdc:	8020913a 	slli	r16,r16,4
 8001be0:	2101ffcc 	andi	r4,r4,2047
 8001be4:	1884b03a 	or	r2,r3,r2
 8001be8:	8020d33a 	srli	r16,r16,12
 8001bec:	00000306 	br	8001bfc <__pack_d+0xbc>
 8001bf0:	0009883a 	mov	r4,zero
 8001bf4:	0005883a 	mov	r2,zero
 8001bf8:	0021883a 	mov	r16,zero
 8001bfc:	2008953a 	slli	r4,r4,20
 8001c00:	982697fa 	slli	r19,r19,31
 8001c04:	00c00434 	movhi	r3,16
 8001c08:	18ffffc4 	addi	r3,r3,-1
 8001c0c:	80e0703a 	and	r16,r16,r3
 8001c10:	8106b03a 	or	r3,r16,r4
 8001c14:	1cc6b03a 	or	r3,r3,r19
 8001c18:	dfc00717 	ldw	ra,28(sp)
 8001c1c:	dd800617 	ldw	r22,24(sp)
 8001c20:	dd400517 	ldw	r21,20(sp)
 8001c24:	dd000417 	ldw	r20,16(sp)
 8001c28:	dcc00317 	ldw	r19,12(sp)
 8001c2c:	dc800217 	ldw	r18,8(sp)
 8001c30:	dc400117 	ldw	r17,4(sp)
 8001c34:	dc000017 	ldw	r16,0(sp)
 8001c38:	dec00804 	addi	sp,sp,32
 8001c3c:	f800283a 	ret
 8001c40:	800697fa 	slli	r3,r16,31
 8001c44:	8804d07a 	srli	r2,r17,1
 8001c48:	21010004 	addi	r4,r4,1024
 8001c4c:	8020d07a 	srli	r16,r16,1
 8001c50:	18a2b03a 	or	r17,r3,r2
 8001c54:	003fdf06 	br	8001bd4 <__pack_d+0x94>
 8001c58:	88c0400c 	andi	r3,r17,256
 8001c5c:	183fd926 	beq	r3,zero,8001bc4 <__pack_d+0x84>
 8001c60:	8885883a 	add	r2,r17,r2
 8001c64:	1463803a 	cmpltu	r17,r2,r17
 8001c68:	8c21883a 	add	r16,r17,r16
 8001c6c:	1023883a 	mov	r17,r2
 8001c70:	003fd406 	br	8001bc4 <__pack_d+0x84>
 8001c74:	0101ffc4 	movi	r4,2047
 8001c78:	0005883a 	mov	r2,zero
 8001c7c:	0021883a 	mov	r16,zero
 8001c80:	003fde06 	br	8001bfc <__pack_d+0xbc>
 8001c84:	84000234 	orhi	r16,r16,8
 8001c88:	00c00434 	movhi	r3,16
 8001c8c:	18ffffc4 	addi	r3,r3,-1
 8001c90:	8805883a 	mov	r2,r17
 8001c94:	80e0703a 	and	r16,r16,r3
 8001c98:	0101ffc4 	movi	r4,2047
 8001c9c:	003fd706 	br	8001bfc <__pack_d+0xbc>
 8001ca0:	1129c83a 	sub	r20,r2,r4
 8001ca4:	00800e04 	movi	r2,56
 8001ca8:	15002716 	blt	r2,r20,8001d48 <__pack_d+0x208>
 8001cac:	800b883a 	mov	r5,r16
 8001cb0:	a00d883a 	mov	r6,r20
 8001cb4:	8809883a 	mov	r4,r17
 8001cb8:	8001e680 	call	8001e68 <__lshrdi3>
 8001cbc:	9009883a 	mov	r4,r18
 8001cc0:	000b883a 	mov	r5,zero
 8001cc4:	a00d883a 	mov	r6,r20
 8001cc8:	102d883a 	mov	r22,r2
 8001ccc:	182b883a 	mov	r21,r3
 8001cd0:	8001eac0 	call	8001eac <__ashldi3>
 8001cd4:	1009003a 	cmpeq	r4,r2,zero
 8001cd8:	1907c83a 	sub	r3,r3,r4
 8001cdc:	10bfffc4 	addi	r2,r2,-1
 8001ce0:	1c20703a 	and	r16,r3,r16
 8001ce4:	1444703a 	and	r2,r2,r17
 8001ce8:	1404b03a 	or	r2,r2,r16
 8001cec:	1004c03a 	cmpne	r2,r2,zero
 8001cf0:	1584b03a 	or	r2,r2,r22
 8001cf4:	11003fcc 	andi	r4,r2,255
 8001cf8:	01402004 	movi	r5,128
 8001cfc:	a807883a 	mov	r3,r21
 8001d00:	2140131e 	bne	r4,r5,8001d50 <__pack_d+0x210>
 8001d04:	1140400c 	andi	r5,r2,256
 8001d08:	28000426 	beq	r5,zero,8001d1c <__pack_d+0x1dc>
 8001d0c:	1109883a 	add	r4,r2,r4
 8001d10:	2085803a 	cmpltu	r2,r4,r2
 8001d14:	1547883a 	add	r3,r2,r21
 8001d18:	2005883a 	mov	r2,r4
 8001d1c:	1808963a 	slli	r4,r3,24
 8001d20:	1004d23a 	srli	r2,r2,8
 8001d24:	1820913a 	slli	r16,r3,4
 8001d28:	01440034 	movhi	r5,4096
 8001d2c:	297fffc4 	addi	r5,r5,-1
 8001d30:	2084b03a 	or	r2,r4,r2
 8001d34:	8020d33a 	srli	r16,r16,12
 8001d38:	01000044 	movi	r4,1
 8001d3c:	28ffaf36 	bltu	r5,r3,8001bfc <__pack_d+0xbc>
 8001d40:	0009883a 	mov	r4,zero
 8001d44:	003fad06 	br	8001bfc <__pack_d+0xbc>
 8001d48:	0005883a 	mov	r2,zero
 8001d4c:	0007883a 	mov	r3,zero
 8001d50:	11001fc4 	addi	r4,r2,127
 8001d54:	2085803a 	cmpltu	r2,r4,r2
 8001d58:	10c7883a 	add	r3,r2,r3
 8001d5c:	2005883a 	mov	r2,r4
 8001d60:	003fee06 	br	8001d1c <__pack_d+0x1dc>

08001d64 <__unpack_d>:
 8001d64:	21800117 	ldw	r6,4(r4)
 8001d68:	20c00017 	ldw	r3,0(r4)
 8001d6c:	3004d7fa 	srli	r2,r6,31
 8001d70:	3008d53a 	srli	r4,r6,20
 8001d74:	28800115 	stw	r2,4(r5)
 8001d78:	2101ffcc 	andi	r4,r4,2047
 8001d7c:	00800434 	movhi	r2,16
 8001d80:	10bfffc4 	addi	r2,r2,-1
 8001d84:	3084703a 	and	r2,r6,r2
 8001d88:	20001a1e 	bne	r4,zero,8001df4 <__unpack_d+0x90>
 8001d8c:	1888b03a 	or	r4,r3,r2
 8001d90:	20002626 	beq	r4,zero,8001e2c <__unpack_d+0xc8>
 8001d94:	1808d63a 	srli	r4,r3,24
 8001d98:	1004923a 	slli	r2,r2,8
 8001d9c:	01bf0084 	movi	r6,-1022
 8001da0:	29800215 	stw	r6,8(r5)
 8001da4:	2084b03a 	or	r2,r4,r2
 8001da8:	010000c4 	movi	r4,3
 8001dac:	29000015 	stw	r4,0(r5)
 8001db0:	02040034 	movhi	r8,4096
 8001db4:	423fffc4 	addi	r8,r8,-1
 8001db8:	1806923a 	slli	r3,r3,8
 8001dbc:	40801836 	bltu	r8,r2,8001e20 <__unpack_d+0xbc>
 8001dc0:	013f0044 	movi	r4,-1023
 8001dc4:	18cd883a 	add	r6,r3,r3
 8001dc8:	30c7803a 	cmpltu	r3,r6,r3
 8001dcc:	1085883a 	add	r2,r2,r2
 8001dd0:	1885883a 	add	r2,r3,r2
 8001dd4:	200f883a 	mov	r7,r4
 8001dd8:	3007883a 	mov	r3,r6
 8001ddc:	213fffc4 	addi	r4,r4,-1
 8001de0:	40bff82e 	bgeu	r8,r2,8001dc4 <__unpack_d+0x60>
 8001de4:	29c00215 	stw	r7,8(r5)
 8001de8:	28c00315 	stw	r3,12(r5)
 8001dec:	28800415 	stw	r2,16(r5)
 8001df0:	f800283a 	ret
 8001df4:	01c1ffc4 	movi	r7,2047
 8001df8:	21c00f26 	beq	r4,r7,8001e38 <__unpack_d+0xd4>
 8001dfc:	180cd63a 	srli	r6,r3,24
 8001e00:	1004923a 	slli	r2,r2,8
 8001e04:	213f0044 	addi	r4,r4,-1023
 8001e08:	1806923a 	slli	r3,r3,8
 8001e0c:	3084b03a 	or	r2,r6,r2
 8001e10:	29000215 	stw	r4,8(r5)
 8001e14:	010000c4 	movi	r4,3
 8001e18:	10840034 	orhi	r2,r2,4096
 8001e1c:	29000015 	stw	r4,0(r5)
 8001e20:	28c00315 	stw	r3,12(r5)
 8001e24:	28800415 	stw	r2,16(r5)
 8001e28:	f800283a 	ret
 8001e2c:	00800084 	movi	r2,2
 8001e30:	28800015 	stw	r2,0(r5)
 8001e34:	f800283a 	ret
 8001e38:	1888b03a 	or	r4,r3,r2
 8001e3c:	20000526 	beq	r4,zero,8001e54 <__unpack_d+0xf0>
 8001e40:	3180022c 	andhi	r6,r6,8
 8001e44:	30000626 	beq	r6,zero,8001e60 <__unpack_d+0xfc>
 8001e48:	01000044 	movi	r4,1
 8001e4c:	29000015 	stw	r4,0(r5)
 8001e50:	003ff306 	br	8001e20 <__unpack_d+0xbc>
 8001e54:	00800104 	movi	r2,4
 8001e58:	28800015 	stw	r2,0(r5)
 8001e5c:	f800283a 	ret
 8001e60:	28000015 	stw	zero,0(r5)
 8001e64:	003fee06 	br	8001e20 <__unpack_d+0xbc>

08001e68 <__lshrdi3>:
 8001e68:	2005883a 	mov	r2,r4
 8001e6c:	2807883a 	mov	r3,r5
 8001e70:	30000826 	beq	r6,zero,8001e94 <__lshrdi3+0x2c>
 8001e74:	01000804 	movi	r4,32
 8001e78:	2189c83a 	sub	r4,r4,r6
 8001e7c:	0100060e 	bge	zero,r4,8001e98 <__lshrdi3+0x30>
 8001e80:	1184d83a 	srl	r2,r2,r6
 8001e84:	2908983a 	sll	r4,r5,r4
 8001e88:	298cd83a 	srl	r6,r5,r6
 8001e8c:	2084b03a 	or	r2,r4,r2
 8001e90:	3007883a 	mov	r3,r6
 8001e94:	f800283a 	ret
 8001e98:	0105c83a 	sub	r2,zero,r4
 8001e9c:	000d883a 	mov	r6,zero
 8001ea0:	2884d83a 	srl	r2,r5,r2
 8001ea4:	3007883a 	mov	r3,r6
 8001ea8:	003ffa06 	br	8001e94 <__lshrdi3+0x2c>

08001eac <__ashldi3>:
 8001eac:	2005883a 	mov	r2,r4
 8001eb0:	2807883a 	mov	r3,r5
 8001eb4:	30000826 	beq	r6,zero,8001ed8 <__ashldi3+0x2c>
 8001eb8:	01000804 	movi	r4,32
 8001ebc:	2189c83a 	sub	r4,r4,r6
 8001ec0:	0100060e 	bge	zero,r4,8001edc <__ashldi3+0x30>
 8001ec4:	1108d83a 	srl	r4,r2,r4
 8001ec8:	2986983a 	sll	r3,r5,r6
 8001ecc:	118c983a 	sll	r6,r2,r6
 8001ed0:	20c6b03a 	or	r3,r4,r3
 8001ed4:	3005883a 	mov	r2,r6
 8001ed8:	f800283a 	ret
 8001edc:	0107c83a 	sub	r3,zero,r4
 8001ee0:	000d883a 	mov	r6,zero
 8001ee4:	10c6983a 	sll	r3,r2,r3
 8001ee8:	3005883a 	mov	r2,r6
 8001eec:	003ffa06 	br	8001ed8 <__ashldi3+0x2c>

08001ef0 <clock>:
 8001ef0:	00820074 	movhi	r2,2049
 8001ef4:	10999c04 	addi	r2,r2,26224
 8001ef8:	11000017 	ldw	r4,0(r2)
 8001efc:	defffb04 	addi	sp,sp,-20
 8001f00:	d80b883a 	mov	r5,sp
 8001f04:	dfc00415 	stw	ra,16(sp)
 8001f08:	80047c00 	call	80047c0 <_times_r>
 8001f0c:	00ffffc4 	movi	r3,-1
 8001f10:	10c00726 	beq	r2,r3,8001f30 <clock+0x40>
 8001f14:	d8c00117 	ldw	r3,4(sp)
 8001f18:	d8800017 	ldw	r2,0(sp)
 8001f1c:	1885883a 	add	r2,r3,r2
 8001f20:	d8c00217 	ldw	r3,8(sp)
 8001f24:	10c5883a 	add	r2,r2,r3
 8001f28:	d8c00317 	ldw	r3,12(sp)
 8001f2c:	10c5883a 	add	r2,r2,r3
 8001f30:	dfc00417 	ldw	ra,16(sp)
 8001f34:	dec00504 	addi	sp,sp,20
 8001f38:	f800283a 	ret

08001f3c <_fclose_r>:
 8001f3c:	defffc04 	addi	sp,sp,-16
 8001f40:	dc400115 	stw	r17,4(sp)
 8001f44:	dc000015 	stw	r16,0(sp)
 8001f48:	dfc00315 	stw	ra,12(sp)
 8001f4c:	dc800215 	stw	r18,8(sp)
 8001f50:	2821883a 	mov	r16,r5
 8001f54:	2023883a 	mov	r17,r4
 8001f58:	28003426 	beq	r5,zero,800202c <_fclose_r+0xf0>
 8001f5c:	80025500 	call	8002550 <__sfp_lock_acquire>
 8001f60:	88000226 	beq	r17,zero,8001f6c <_fclose_r+0x30>
 8001f64:	88800e17 	ldw	r2,56(r17)
 8001f68:	10003826 	beq	r2,zero,800204c <_fclose_r+0x110>
 8001f6c:	8080030f 	ldh	r2,12(r16)
 8001f70:	10002526 	beq	r2,zero,8002008 <_fclose_r+0xcc>
 8001f74:	8809883a 	mov	r4,r17
 8001f78:	800b883a 	mov	r5,r16
 8001f7c:	800208c0 	call	800208c <_fflush_r>
 8001f80:	1025883a 	mov	r18,r2
 8001f84:	80800b17 	ldw	r2,44(r16)
 8001f88:	10000426 	beq	r2,zero,8001f9c <_fclose_r+0x60>
 8001f8c:	81400717 	ldw	r5,28(r16)
 8001f90:	8809883a 	mov	r4,r17
 8001f94:	103ee83a 	callr	r2
 8001f98:	10003516 	blt	r2,zero,8002070 <_fclose_r+0x134>
 8001f9c:	8080030b 	ldhu	r2,12(r16)
 8001fa0:	1080200c 	andi	r2,r2,128
 8001fa4:	10bfffcc 	andi	r2,r2,65535
 8001fa8:	10a0001c 	xori	r2,r2,32768
 8001fac:	10a00004 	addi	r2,r2,-32768
 8001fb0:	10002b1e 	bne	r2,zero,8002060 <_fclose_r+0x124>
 8001fb4:	81400c17 	ldw	r5,48(r16)
 8001fb8:	28000526 	beq	r5,zero,8001fd0 <_fclose_r+0x94>
 8001fbc:	80801004 	addi	r2,r16,64
 8001fc0:	28800226 	beq	r5,r2,8001fcc <_fclose_r+0x90>
 8001fc4:	8809883a 	mov	r4,r17
 8001fc8:	8002ae00 	call	8002ae0 <_free_r>
 8001fcc:	80000c15 	stw	zero,48(r16)
 8001fd0:	81401117 	ldw	r5,68(r16)
 8001fd4:	28000326 	beq	r5,zero,8001fe4 <_fclose_r+0xa8>
 8001fd8:	8809883a 	mov	r4,r17
 8001fdc:	8002ae00 	call	8002ae0 <_free_r>
 8001fe0:	80001115 	stw	zero,68(r16)
 8001fe4:	8000030d 	sth	zero,12(r16)
 8001fe8:	80025540 	call	8002554 <__sfp_lock_release>
 8001fec:	9005883a 	mov	r2,r18
 8001ff0:	dfc00317 	ldw	ra,12(sp)
 8001ff4:	dc800217 	ldw	r18,8(sp)
 8001ff8:	dc400117 	ldw	r17,4(sp)
 8001ffc:	dc000017 	ldw	r16,0(sp)
 8002000:	dec00404 	addi	sp,sp,16
 8002004:	f800283a 	ret
 8002008:	80025540 	call	8002554 <__sfp_lock_release>
 800200c:	0025883a 	mov	r18,zero
 8002010:	9005883a 	mov	r2,r18
 8002014:	dfc00317 	ldw	ra,12(sp)
 8002018:	dc800217 	ldw	r18,8(sp)
 800201c:	dc400117 	ldw	r17,4(sp)
 8002020:	dc000017 	ldw	r16,0(sp)
 8002024:	dec00404 	addi	sp,sp,16
 8002028:	f800283a 	ret
 800202c:	0025883a 	mov	r18,zero
 8002030:	9005883a 	mov	r2,r18
 8002034:	dfc00317 	ldw	ra,12(sp)
 8002038:	dc800217 	ldw	r18,8(sp)
 800203c:	dc400117 	ldw	r17,4(sp)
 8002040:	dc000017 	ldw	r16,0(sp)
 8002044:	dec00404 	addi	sp,sp,16
 8002048:	f800283a 	ret
 800204c:	8809883a 	mov	r4,r17
 8002050:	80023480 	call	8002348 <__sinit>
 8002054:	8080030f 	ldh	r2,12(r16)
 8002058:	103fc61e 	bne	r2,zero,8001f74 <_fclose_r+0x38>
 800205c:	003fea06 	br	8002008 <_fclose_r+0xcc>
 8002060:	81400417 	ldw	r5,16(r16)
 8002064:	8809883a 	mov	r4,r17
 8002068:	8002ae00 	call	8002ae0 <_free_r>
 800206c:	003fd106 	br	8001fb4 <_fclose_r+0x78>
 8002070:	04bfffc4 	movi	r18,-1
 8002074:	003fc906 	br	8001f9c <_fclose_r+0x60>

08002078 <fclose>:
 8002078:	00820074 	movhi	r2,2049
 800207c:	10999c04 	addi	r2,r2,26224
 8002080:	200b883a 	mov	r5,r4
 8002084:	11000017 	ldw	r4,0(r2)
 8002088:	8001f3c1 	jmpi	8001f3c <_fclose_r>

0800208c <_fflush_r>:
 800208c:	defffb04 	addi	sp,sp,-20
 8002090:	dcc00315 	stw	r19,12(sp)
 8002094:	dc400115 	stw	r17,4(sp)
 8002098:	dfc00415 	stw	ra,16(sp)
 800209c:	dc800215 	stw	r18,8(sp)
 80020a0:	dc000015 	stw	r16,0(sp)
 80020a4:	2027883a 	mov	r19,r4
 80020a8:	2823883a 	mov	r17,r5
 80020ac:	20000226 	beq	r4,zero,80020b8 <_fflush_r+0x2c>
 80020b0:	20800e17 	ldw	r2,56(r4)
 80020b4:	10005726 	beq	r2,zero,8002214 <_fflush_r+0x188>
 80020b8:	8880030b 	ldhu	r2,12(r17)
 80020bc:	10c0020c 	andi	r3,r2,8
 80020c0:	18ffffcc 	andi	r3,r3,65535
 80020c4:	18e0001c 	xori	r3,r3,32768
 80020c8:	18e00004 	addi	r3,r3,-32768
 80020cc:	1800311e 	bne	r3,zero,8002194 <_fflush_r+0x108>
 80020d0:	89000117 	ldw	r4,4(r17)
 80020d4:	10c20014 	ori	r3,r2,2048
 80020d8:	88c0030d 	sth	r3,12(r17)
 80020dc:	180b883a 	mov	r5,r3
 80020e0:	0100520e 	bge	zero,r4,800222c <_fflush_r+0x1a0>
 80020e4:	88c00a17 	ldw	r3,40(r17)
 80020e8:	18002226 	beq	r3,zero,8002174 <_fflush_r+0xe8>
 80020ec:	1084000c 	andi	r2,r2,4096
 80020f0:	10bfffcc 	andi	r2,r2,65535
 80020f4:	10a0001c 	xori	r2,r2,32768
 80020f8:	10a00004 	addi	r2,r2,-32768
 80020fc:	10004e26 	beq	r2,zero,8002238 <_fflush_r+0x1ac>
 8002100:	8c001417 	ldw	r16,80(r17)
 8002104:	2940010c 	andi	r5,r5,4
 8002108:	297fffcc 	andi	r5,r5,65535
 800210c:	2960001c 	xori	r5,r5,32768
 8002110:	29600004 	addi	r5,r5,-32768
 8002114:	28000626 	beq	r5,zero,8002130 <_fflush_r+0xa4>
 8002118:	89000117 	ldw	r4,4(r17)
 800211c:	88800c17 	ldw	r2,48(r17)
 8002120:	8121c83a 	sub	r16,r16,r4
 8002124:	10000226 	beq	r2,zero,8002130 <_fflush_r+0xa4>
 8002128:	88800f17 	ldw	r2,60(r17)
 800212c:	80a1c83a 	sub	r16,r16,r2
 8002130:	89400717 	ldw	r5,28(r17)
 8002134:	9809883a 	mov	r4,r19
 8002138:	800d883a 	mov	r6,r16
 800213c:	000f883a 	mov	r7,zero
 8002140:	183ee83a 	callr	r3
 8002144:	8080281e 	bne	r16,r2,80021e8 <_fflush_r+0x15c>
 8002148:	8880030b 	ldhu	r2,12(r17)
 800214c:	88c00417 	ldw	r3,16(r17)
 8002150:	88000115 	stw	zero,4(r17)
 8002154:	113dffcc 	andi	r4,r2,63487
 8002158:	1084000c 	andi	r2,r2,4096
 800215c:	10bfffcc 	andi	r2,r2,65535
 8002160:	10a0001c 	xori	r2,r2,32768
 8002164:	8900030d 	sth	r4,12(r17)
 8002168:	88c00015 	stw	r3,0(r17)
 800216c:	10a00004 	addi	r2,r2,-32768
 8002170:	10002c1e 	bne	r2,zero,8002224 <_fflush_r+0x198>
 8002174:	0005883a 	mov	r2,zero
 8002178:	dfc00417 	ldw	ra,16(sp)
 800217c:	dcc00317 	ldw	r19,12(sp)
 8002180:	dc800217 	ldw	r18,8(sp)
 8002184:	dc400117 	ldw	r17,4(sp)
 8002188:	dc000017 	ldw	r16,0(sp)
 800218c:	dec00504 	addi	sp,sp,20
 8002190:	f800283a 	ret
 8002194:	8c800417 	ldw	r18,16(r17)
 8002198:	903ff626 	beq	r18,zero,8002174 <_fflush_r+0xe8>
 800219c:	8c000017 	ldw	r16,0(r17)
 80021a0:	108000cc 	andi	r2,r2,3
 80021a4:	8c800015 	stw	r18,0(r17)
 80021a8:	84a1c83a 	sub	r16,r16,r18
 80021ac:	10001b1e 	bne	r2,zero,800221c <_fflush_r+0x190>
 80021b0:	88800517 	ldw	r2,20(r17)
 80021b4:	88800215 	stw	r2,8(r17)
 80021b8:	04000316 	blt	zero,r16,80021c8 <_fflush_r+0x13c>
 80021bc:	003fed06 	br	8002174 <_fflush_r+0xe8>
 80021c0:	90a5883a 	add	r18,r18,r2
 80021c4:	043feb0e 	bge	zero,r16,8002174 <_fflush_r+0xe8>
 80021c8:	88800917 	ldw	r2,36(r17)
 80021cc:	89400717 	ldw	r5,28(r17)
 80021d0:	800f883a 	mov	r7,r16
 80021d4:	900d883a 	mov	r6,r18
 80021d8:	9809883a 	mov	r4,r19
 80021dc:	103ee83a 	callr	r2
 80021e0:	80a1c83a 	sub	r16,r16,r2
 80021e4:	00bff616 	blt	zero,r2,80021c0 <_fflush_r+0x134>
 80021e8:	88c0030b 	ldhu	r3,12(r17)
 80021ec:	00bfffc4 	movi	r2,-1
 80021f0:	18c01014 	ori	r3,r3,64
 80021f4:	88c0030d 	sth	r3,12(r17)
 80021f8:	dfc00417 	ldw	ra,16(sp)
 80021fc:	dcc00317 	ldw	r19,12(sp)
 8002200:	dc800217 	ldw	r18,8(sp)
 8002204:	dc400117 	ldw	r17,4(sp)
 8002208:	dc000017 	ldw	r16,0(sp)
 800220c:	dec00504 	addi	sp,sp,20
 8002210:	f800283a 	ret
 8002214:	80023480 	call	8002348 <__sinit>
 8002218:	003fa706 	br	80020b8 <_fflush_r+0x2c>
 800221c:	0005883a 	mov	r2,zero
 8002220:	003fe406 	br	80021b4 <_fflush_r+0x128>
 8002224:	8c001415 	stw	r16,80(r17)
 8002228:	003fd206 	br	8002174 <_fflush_r+0xe8>
 800222c:	88c00f17 	ldw	r3,60(r17)
 8002230:	00ffac16 	blt	zero,r3,80020e4 <_fflush_r+0x58>
 8002234:	003fcf06 	br	8002174 <_fflush_r+0xe8>
 8002238:	89400717 	ldw	r5,28(r17)
 800223c:	9809883a 	mov	r4,r19
 8002240:	000d883a 	mov	r6,zero
 8002244:	01c00044 	movi	r7,1
 8002248:	183ee83a 	callr	r3
 800224c:	1021883a 	mov	r16,r2
 8002250:	00bfffc4 	movi	r2,-1
 8002254:	80800326 	beq	r16,r2,8002264 <_fflush_r+0x1d8>
 8002258:	8940030b 	ldhu	r5,12(r17)
 800225c:	88c00a17 	ldw	r3,40(r17)
 8002260:	003fa806 	br	8002104 <_fflush_r+0x78>
 8002264:	98c00017 	ldw	r3,0(r19)
 8002268:	00800744 	movi	r2,29
 800226c:	18bfde1e 	bne	r3,r2,80021e8 <_fflush_r+0x15c>
 8002270:	003fc006 	br	8002174 <_fflush_r+0xe8>

08002274 <fflush>:
 8002274:	200b883a 	mov	r5,r4
 8002278:	20000426 	beq	r4,zero,800228c <fflush+0x18>
 800227c:	00820074 	movhi	r2,2049
 8002280:	10999c04 	addi	r2,r2,26224
 8002284:	11000017 	ldw	r4,0(r2)
 8002288:	800208c1 	jmpi	800208c <_fflush_r>
 800228c:	00820074 	movhi	r2,2049
 8002290:	10999b04 	addi	r2,r2,26220
 8002294:	11000017 	ldw	r4,0(r2)
 8002298:	01420034 	movhi	r5,2048
 800229c:	29482304 	addi	r5,r5,8332
 80022a0:	80033b41 	jmpi	80033b4 <_fwalk_reent>

080022a4 <__fp_lock>:
 80022a4:	0005883a 	mov	r2,zero
 80022a8:	f800283a 	ret

080022ac <__fp_unlock>:
 80022ac:	0005883a 	mov	r2,zero
 80022b0:	f800283a 	ret

080022b4 <_cleanup_r>:
 80022b4:	01420034 	movhi	r5,2048
 80022b8:	29481e04 	addi	r5,r5,8312
 80022bc:	800330c1 	jmpi	800330c <_fwalk>

080022c0 <__sfmoreglue>:
 80022c0:	defffc04 	addi	sp,sp,-16
 80022c4:	dc800215 	stw	r18,8(sp)
 80022c8:	2825883a 	mov	r18,r5
 80022cc:	dc000015 	stw	r16,0(sp)
 80022d0:	01401704 	movi	r5,92
 80022d4:	2021883a 	mov	r16,r4
 80022d8:	9009883a 	mov	r4,r18
 80022dc:	dfc00315 	stw	ra,12(sp)
 80022e0:	dc400115 	stw	r17,4(sp)
 80022e4:	8001a6c0 	call	8001a6c <__mulsi3>
 80022e8:	8009883a 	mov	r4,r16
 80022ec:	11400304 	addi	r5,r2,12
 80022f0:	1023883a 	mov	r17,r2
 80022f4:	800372c0 	call	800372c <_malloc_r>
 80022f8:	1021883a 	mov	r16,r2
 80022fc:	10000726 	beq	r2,zero,800231c <__sfmoreglue+0x5c>
 8002300:	11000304 	addi	r4,r2,12
 8002304:	10000015 	stw	zero,0(r2)
 8002308:	14800115 	stw	r18,4(r2)
 800230c:	11000215 	stw	r4,8(r2)
 8002310:	000b883a 	mov	r5,zero
 8002314:	880d883a 	mov	r6,r17
 8002318:	8003ff00 	call	8003ff0 <memset>
 800231c:	8005883a 	mov	r2,r16
 8002320:	dfc00317 	ldw	ra,12(sp)
 8002324:	dc800217 	ldw	r18,8(sp)
 8002328:	dc400117 	ldw	r17,4(sp)
 800232c:	dc000017 	ldw	r16,0(sp)
 8002330:	dec00404 	addi	sp,sp,16
 8002334:	f800283a 	ret

08002338 <_cleanup>:
 8002338:	00820074 	movhi	r2,2049
 800233c:	10999b04 	addi	r2,r2,26220
 8002340:	11000017 	ldw	r4,0(r2)
 8002344:	80022b41 	jmpi	80022b4 <_cleanup_r>

08002348 <__sinit>:
 8002348:	20800e17 	ldw	r2,56(r4)
 800234c:	1000401e 	bne	r2,zero,8002450 <__sinit+0x108>
 8002350:	21400117 	ldw	r5,4(r4)
 8002354:	01820034 	movhi	r6,2048
 8002358:	3188ad04 	addi	r6,r6,8884
 800235c:	20c00217 	ldw	r3,8(r4)
 8002360:	21800f15 	stw	r6,60(r4)
 8002364:	2080bb04 	addi	r2,r4,748
 8002368:	02400044 	movi	r9,1
 800236c:	018000c4 	movi	r6,3
 8002370:	2180b915 	stw	r6,740(r4)
 8002374:	2080ba15 	stw	r2,744(r4)
 8002378:	22400e15 	stw	r9,56(r4)
 800237c:	20800317 	ldw	r2,12(r4)
 8002380:	2000b815 	stw	zero,736(r4)
 8002384:	02020034 	movhi	r8,2048
 8002388:	42113204 	addi	r8,r8,17608
 800238c:	01c20034 	movhi	r7,2048
 8002390:	39d14704 	addi	r7,r7,17692
 8002394:	01820034 	movhi	r6,2048
 8002398:	31916904 	addi	r6,r6,17828
 800239c:	01020034 	movhi	r4,2048
 80023a0:	21118004 	addi	r4,r4,17920
 80023a4:	02800104 	movi	r10,4
 80023a8:	28000015 	stw	zero,0(r5)
 80023ac:	28000115 	stw	zero,4(r5)
 80023b0:	28000215 	stw	zero,8(r5)
 80023b4:	2a80030d 	sth	r10,12(r5)
 80023b8:	2800038d 	sth	zero,14(r5)
 80023bc:	28000415 	stw	zero,16(r5)
 80023c0:	28000515 	stw	zero,20(r5)
 80023c4:	28000615 	stw	zero,24(r5)
 80023c8:	29400715 	stw	r5,28(r5)
 80023cc:	2a000815 	stw	r8,32(r5)
 80023d0:	29c00915 	stw	r7,36(r5)
 80023d4:	29800a15 	stw	r6,40(r5)
 80023d8:	29000b15 	stw	r4,44(r5)
 80023dc:	01400284 	movi	r5,10
 80023e0:	18000015 	stw	zero,0(r3)
 80023e4:	18000115 	stw	zero,4(r3)
 80023e8:	18000215 	stw	zero,8(r3)
 80023ec:	1940030d 	sth	r5,12(r3)
 80023f0:	1a40038d 	sth	r9,14(r3)
 80023f4:	18000415 	stw	zero,16(r3)
 80023f8:	18000515 	stw	zero,20(r3)
 80023fc:	18000615 	stw	zero,24(r3)
 8002400:	18c00715 	stw	r3,28(r3)
 8002404:	1a000815 	stw	r8,32(r3)
 8002408:	19c00915 	stw	r7,36(r3)
 800240c:	19800a15 	stw	r6,40(r3)
 8002410:	19000b15 	stw	r4,44(r3)
 8002414:	00c00484 	movi	r3,18
 8002418:	10c0030d 	sth	r3,12(r2)
 800241c:	00c00084 	movi	r3,2
 8002420:	10000015 	stw	zero,0(r2)
 8002424:	10000115 	stw	zero,4(r2)
 8002428:	10000215 	stw	zero,8(r2)
 800242c:	10c0038d 	sth	r3,14(r2)
 8002430:	10000415 	stw	zero,16(r2)
 8002434:	10000515 	stw	zero,20(r2)
 8002438:	10000615 	stw	zero,24(r2)
 800243c:	10800715 	stw	r2,28(r2)
 8002440:	12000815 	stw	r8,32(r2)
 8002444:	11c00915 	stw	r7,36(r2)
 8002448:	11800a15 	stw	r6,40(r2)
 800244c:	11000b15 	stw	r4,44(r2)
 8002450:	f800283a 	ret

08002454 <__sfp>:
 8002454:	defffc04 	addi	sp,sp,-16
 8002458:	00820074 	movhi	r2,2049
 800245c:	10999b04 	addi	r2,r2,26220
 8002460:	dc400115 	stw	r17,4(sp)
 8002464:	14400017 	ldw	r17,0(r2)
 8002468:	dc800215 	stw	r18,8(sp)
 800246c:	dfc00315 	stw	ra,12(sp)
 8002470:	88800e17 	ldw	r2,56(r17)
 8002474:	dc000015 	stw	r16,0(sp)
 8002478:	2025883a 	mov	r18,r4
 800247c:	10002826 	beq	r2,zero,8002520 <__sfp+0xcc>
 8002480:	8c40b804 	addi	r17,r17,736
 8002484:	043fffc4 	movi	r16,-1
 8002488:	89400117 	ldw	r5,4(r17)
 800248c:	88800217 	ldw	r2,8(r17)
 8002490:	297fffc4 	addi	r5,r5,-1
 8002494:	28000a16 	blt	r5,zero,80024c0 <__sfp+0x6c>
 8002498:	10c0030f 	ldh	r3,12(r2)
 800249c:	18000c26 	beq	r3,zero,80024d0 <__sfp+0x7c>
 80024a0:	10c01a04 	addi	r3,r2,104
 80024a4:	00000206 	br	80024b0 <__sfp+0x5c>
 80024a8:	19bfe90f 	ldh	r6,-92(r3)
 80024ac:	30000826 	beq	r6,zero,80024d0 <__sfp+0x7c>
 80024b0:	297fffc4 	addi	r5,r5,-1
 80024b4:	18bffd04 	addi	r2,r3,-12
 80024b8:	18c01704 	addi	r3,r3,92
 80024bc:	2c3ffa1e 	bne	r5,r16,80024a8 <__sfp+0x54>
 80024c0:	88800017 	ldw	r2,0(r17)
 80024c4:	10001926 	beq	r2,zero,800252c <__sfp+0xd8>
 80024c8:	1023883a 	mov	r17,r2
 80024cc:	003fee06 	br	8002488 <__sfp+0x34>
 80024d0:	00ffffc4 	movi	r3,-1
 80024d4:	10c0038d 	sth	r3,14(r2)
 80024d8:	00c00044 	movi	r3,1
 80024dc:	10c0030d 	sth	r3,12(r2)
 80024e0:	10000015 	stw	zero,0(r2)
 80024e4:	10000215 	stw	zero,8(r2)
 80024e8:	10000115 	stw	zero,4(r2)
 80024ec:	10000415 	stw	zero,16(r2)
 80024f0:	10000515 	stw	zero,20(r2)
 80024f4:	10000615 	stw	zero,24(r2)
 80024f8:	10000c15 	stw	zero,48(r2)
 80024fc:	10000d15 	stw	zero,52(r2)
 8002500:	10001115 	stw	zero,68(r2)
 8002504:	10001215 	stw	zero,72(r2)
 8002508:	dfc00317 	ldw	ra,12(sp)
 800250c:	dc800217 	ldw	r18,8(sp)
 8002510:	dc400117 	ldw	r17,4(sp)
 8002514:	dc000017 	ldw	r16,0(sp)
 8002518:	dec00404 	addi	sp,sp,16
 800251c:	f800283a 	ret
 8002520:	8809883a 	mov	r4,r17
 8002524:	80023480 	call	8002348 <__sinit>
 8002528:	003fd506 	br	8002480 <__sfp+0x2c>
 800252c:	9009883a 	mov	r4,r18
 8002530:	01400104 	movi	r5,4
 8002534:	80022c00 	call	80022c0 <__sfmoreglue>
 8002538:	88800015 	stw	r2,0(r17)
 800253c:	103fe21e 	bne	r2,zero,80024c8 <__sfp+0x74>
 8002540:	00800304 	movi	r2,12
 8002544:	90800015 	stw	r2,0(r18)
 8002548:	0005883a 	mov	r2,zero
 800254c:	003fee06 	br	8002508 <__sfp+0xb4>

08002550 <__sfp_lock_acquire>:
 8002550:	f800283a 	ret

08002554 <__sfp_lock_release>:
 8002554:	f800283a 	ret

08002558 <__sinit_lock_acquire>:
 8002558:	f800283a 	ret

0800255c <__sinit_lock_release>:
 800255c:	f800283a 	ret

08002560 <__fp_lock_all>:
 8002560:	00820074 	movhi	r2,2049
 8002564:	10999c04 	addi	r2,r2,26224
 8002568:	11000017 	ldw	r4,0(r2)
 800256c:	01420034 	movhi	r5,2048
 8002570:	2948a904 	addi	r5,r5,8868
 8002574:	800330c1 	jmpi	800330c <_fwalk>

08002578 <__fp_unlock_all>:
 8002578:	00820074 	movhi	r2,2049
 800257c:	10999c04 	addi	r2,r2,26224
 8002580:	11000017 	ldw	r4,0(r2)
 8002584:	01420034 	movhi	r5,2048
 8002588:	2948ab04 	addi	r5,r5,8876
 800258c:	800330c1 	jmpi	800330c <_fwalk>

08002590 <_fopen_r>:
 8002590:	defffa04 	addi	sp,sp,-24
 8002594:	dcc00415 	stw	r19,16(sp)
 8002598:	2827883a 	mov	r19,r5
 800259c:	300b883a 	mov	r5,r6
 80025a0:	d80d883a 	mov	r6,sp
 80025a4:	dc800315 	stw	r18,12(sp)
 80025a8:	dc400215 	stw	r17,8(sp)
 80025ac:	dfc00515 	stw	ra,20(sp)
 80025b0:	dc000115 	stw	r16,4(sp)
 80025b4:	2025883a 	mov	r18,r4
 80025b8:	80098c00 	call	80098c0 <__sflags>
 80025bc:	1023883a 	mov	r17,r2
 80025c0:	10002926 	beq	r2,zero,8002668 <_fopen_r+0xd8>
 80025c4:	9009883a 	mov	r4,r18
 80025c8:	80024540 	call	8002454 <__sfp>
 80025cc:	1021883a 	mov	r16,r2
 80025d0:	10002526 	beq	r2,zero,8002668 <_fopen_r+0xd8>
 80025d4:	d9800017 	ldw	r6,0(sp)
 80025d8:	9009883a 	mov	r4,r18
 80025dc:	980b883a 	mov	r5,r19
 80025e0:	01c06d84 	movi	r7,438
 80025e4:	80040cc0 	call	80040cc <_open_r>
 80025e8:	10001c16 	blt	r2,zero,800265c <_fopen_r+0xcc>
 80025ec:	8080038d 	sth	r2,14(r16)
 80025f0:	00820034 	movhi	r2,2048
 80025f4:	10913204 	addi	r2,r2,17608
 80025f8:	80800815 	stw	r2,32(r16)
 80025fc:	00820034 	movhi	r2,2048
 8002600:	10914704 	addi	r2,r2,17692
 8002604:	80800915 	stw	r2,36(r16)
 8002608:	00820034 	movhi	r2,2048
 800260c:	10916904 	addi	r2,r2,17828
 8002610:	88c0400c 	andi	r3,r17,256
 8002614:	80800a15 	stw	r2,40(r16)
 8002618:	00820034 	movhi	r2,2048
 800261c:	10918004 	addi	r2,r2,17920
 8002620:	80800b15 	stw	r2,44(r16)
 8002624:	18bfffcc 	andi	r2,r3,65535
 8002628:	10a0001c 	xori	r2,r2,32768
 800262c:	8440030d 	sth	r17,12(r16)
 8002630:	84000715 	stw	r16,28(r16)
 8002634:	10a00004 	addi	r2,r2,-32768
 8002638:	1000141e 	bne	r2,zero,800268c <_fopen_r+0xfc>
 800263c:	8005883a 	mov	r2,r16
 8002640:	dfc00517 	ldw	ra,20(sp)
 8002644:	dcc00417 	ldw	r19,16(sp)
 8002648:	dc800317 	ldw	r18,12(sp)
 800264c:	dc400217 	ldw	r17,8(sp)
 8002650:	dc000117 	ldw	r16,4(sp)
 8002654:	dec00604 	addi	sp,sp,24
 8002658:	f800283a 	ret
 800265c:	80025500 	call	8002550 <__sfp_lock_acquire>
 8002660:	8000030d 	sth	zero,12(r16)
 8002664:	80025540 	call	8002554 <__sfp_lock_release>
 8002668:	0021883a 	mov	r16,zero
 800266c:	8005883a 	mov	r2,r16
 8002670:	dfc00517 	ldw	ra,20(sp)
 8002674:	dcc00417 	ldw	r19,16(sp)
 8002678:	dc800317 	ldw	r18,12(sp)
 800267c:	dc400217 	ldw	r17,8(sp)
 8002680:	dc000117 	ldw	r16,4(sp)
 8002684:	dec00604 	addi	sp,sp,24
 8002688:	f800283a 	ret
 800268c:	9009883a 	mov	r4,r18
 8002690:	800b883a 	mov	r5,r16
 8002694:	000d883a 	mov	r6,zero
 8002698:	01c00084 	movi	r7,2
 800269c:	8002e0c0 	call	8002e0c <_fseek_r>
 80026a0:	8005883a 	mov	r2,r16
 80026a4:	dfc00517 	ldw	ra,20(sp)
 80026a8:	dcc00417 	ldw	r19,16(sp)
 80026ac:	dc800317 	ldw	r18,12(sp)
 80026b0:	dc400217 	ldw	r17,8(sp)
 80026b4:	dc000117 	ldw	r16,4(sp)
 80026b8:	dec00604 	addi	sp,sp,24
 80026bc:	f800283a 	ret

080026c0 <fopen>:
 80026c0:	00c20074 	movhi	r3,2049
 80026c4:	18d99c04 	addi	r3,r3,26224
 80026c8:	2005883a 	mov	r2,r4
 80026cc:	19000017 	ldw	r4,0(r3)
 80026d0:	280d883a 	mov	r6,r5
 80026d4:	100b883a 	mov	r5,r2
 80026d8:	80025901 	jmpi	8002590 <_fopen_r>

080026dc <_fprintf_r>:
 80026dc:	defffe04 	addi	sp,sp,-8
 80026e0:	2809883a 	mov	r4,r5
 80026e4:	dfc00015 	stw	ra,0(sp)
 80026e8:	d9c00115 	stw	r7,4(sp)
 80026ec:	300b883a 	mov	r5,r6
 80026f0:	d9800104 	addi	r6,sp,4
 80026f4:	80066780 	call	8006678 <__vfprintf_internal>
 80026f8:	dfc00017 	ldw	ra,0(sp)
 80026fc:	dec00204 	addi	sp,sp,8
 8002700:	f800283a 	ret

08002704 <fprintf>:
 8002704:	defffd04 	addi	sp,sp,-12
 8002708:	dfc00015 	stw	ra,0(sp)
 800270c:	d9800115 	stw	r6,4(sp)
 8002710:	d9c00215 	stw	r7,8(sp)
 8002714:	d9800104 	addi	r6,sp,4
 8002718:	80066780 	call	8006678 <__vfprintf_internal>
 800271c:	dfc00017 	ldw	ra,0(sp)
 8002720:	dec00304 	addi	sp,sp,12
 8002724:	f800283a 	ret

08002728 <_fread_r>:
 8002728:	defff504 	addi	sp,sp,-44
 800272c:	dd000515 	stw	r20,20(sp)
 8002730:	dcc00415 	stw	r19,16(sp)
 8002734:	2029883a 	mov	r20,r4
 8002738:	2827883a 	mov	r19,r5
 800273c:	3809883a 	mov	r4,r7
 8002740:	300b883a 	mov	r5,r6
 8002744:	ddc00815 	stw	r23,32(sp)
 8002748:	dd800715 	stw	r22,28(sp)
 800274c:	dd400615 	stw	r21,24(sp)
 8002750:	dc000115 	stw	r16,4(sp)
 8002754:	dfc00a15 	stw	ra,40(sp)
 8002758:	df000915 	stw	fp,36(sp)
 800275c:	dc800315 	stw	r18,12(sp)
 8002760:	dc400215 	stw	r17,8(sp)
 8002764:	302f883a 	mov	r23,r6
 8002768:	382b883a 	mov	r21,r7
 800276c:	8001a6c0 	call	8001a6c <__mulsi3>
 8002770:	102d883a 	mov	r22,r2
 8002774:	dc000b17 	ldw	r16,44(sp)
 8002778:	10002e26 	beq	r2,zero,8002834 <_fread_r+0x10c>
 800277c:	a0000226 	beq	r20,zero,8002788 <_fread_r+0x60>
 8002780:	a0800e17 	ldw	r2,56(r20)
 8002784:	10006726 	beq	r2,zero,8002924 <_fread_r+0x1fc>
 8002788:	84400117 	ldw	r17,4(r16)
 800278c:	88002b16 	blt	r17,zero,800283c <_fread_r+0x114>
 8002790:	8080030b 	ldhu	r2,12(r16)
 8002794:	8807883a 	mov	r3,r17
 8002798:	1080008c 	andi	r2,r2,2
 800279c:	10bfffcc 	andi	r2,r2,65535
 80027a0:	10a0001c 	xori	r2,r2,32768
 80027a4:	10a00004 	addi	r2,r2,-32768
 80027a8:	10002d1e 	bne	r2,zero,8002860 <_fread_r+0x138>
 80027ac:	b025883a 	mov	r18,r22
 80027b0:	00000106 	br	80027b8 <_fread_r+0x90>
 80027b4:	84400117 	ldw	r17,4(r16)
 80027b8:	9809883a 	mov	r4,r19
 80027bc:	880d883a 	mov	r6,r17
 80027c0:	81400017 	ldw	r5,0(r16)
 80027c4:	8c805c2e 	bgeu	r17,r18,8002938 <_fread_r+0x210>
 80027c8:	8003eb00 	call	8003eb0 <memcpy>
 80027cc:	80800017 	ldw	r2,0(r16)
 80027d0:	9c67883a 	add	r19,r19,r17
 80027d4:	9465c83a 	sub	r18,r18,r17
 80027d8:	1463883a 	add	r17,r2,r17
 80027dc:	a009883a 	mov	r4,r20
 80027e0:	800b883a 	mov	r5,r16
 80027e4:	84400015 	stw	r17,0(r16)
 80027e8:	80042780 	call	8004278 <__srefill_r>
 80027ec:	103ff126 	beq	r2,zero,80027b4 <_fread_r+0x8c>
 80027f0:	b489c83a 	sub	r4,r22,r18
 80027f4:	b80b883a 	mov	r5,r23
 80027f8:	8010c2c0 	call	8010c2c <__udivsi3>
 80027fc:	102b883a 	mov	r21,r2
 8002800:	a805883a 	mov	r2,r21
 8002804:	dfc00a17 	ldw	ra,40(sp)
 8002808:	df000917 	ldw	fp,36(sp)
 800280c:	ddc00817 	ldw	r23,32(sp)
 8002810:	dd800717 	ldw	r22,28(sp)
 8002814:	dd400617 	ldw	r21,24(sp)
 8002818:	dd000517 	ldw	r20,20(sp)
 800281c:	dcc00417 	ldw	r19,16(sp)
 8002820:	dc800317 	ldw	r18,12(sp)
 8002824:	dc400217 	ldw	r17,8(sp)
 8002828:	dc000117 	ldw	r16,4(sp)
 800282c:	dec00b04 	addi	sp,sp,44
 8002830:	f800283a 	ret
 8002834:	002b883a 	mov	r21,zero
 8002838:	003ff106 	br	8002800 <_fread_r+0xd8>
 800283c:	8080030b 	ldhu	r2,12(r16)
 8002840:	80000115 	stw	zero,4(r16)
 8002844:	0007883a 	mov	r3,zero
 8002848:	1080008c 	andi	r2,r2,2
 800284c:	10bfffcc 	andi	r2,r2,65535
 8002850:	10a0001c 	xori	r2,r2,32768
 8002854:	10a00004 	addi	r2,r2,-32768
 8002858:	0023883a 	mov	r17,zero
 800285c:	103fd326 	beq	r2,zero,80027ac <_fread_r+0x84>
 8002860:	1823883a 	mov	r17,r3
 8002864:	b0c0012e 	bgeu	r22,r3,800286c <_fread_r+0x144>
 8002868:	b023883a 	mov	r17,r22
 800286c:	81400017 	ldw	r5,0(r16)
 8002870:	9809883a 	mov	r4,r19
 8002874:	880d883a 	mov	r6,r17
 8002878:	8003eb00 	call	8003eb0 <memcpy>
 800287c:	80800117 	ldw	r2,4(r16)
 8002880:	84800017 	ldw	r18,0(r16)
 8002884:	81400c17 	ldw	r5,48(r16)
 8002888:	1445c83a 	sub	r2,r2,r17
 800288c:	9465883a 	add	r18,r18,r17
 8002890:	84800015 	stw	r18,0(r16)
 8002894:	80800115 	stw	r2,4(r16)
 8002898:	9c67883a 	add	r19,r19,r17
 800289c:	b463c83a 	sub	r17,r22,r17
 80028a0:	28002e26 	beq	r5,zero,800295c <_fread_r+0x234>
 80028a4:	883fd626 	beq	r17,zero,8002800 <_fread_r+0xd8>
 80028a8:	80801004 	addi	r2,r16,64
 80028ac:	28800326 	beq	r5,r2,80028bc <_fread_r+0x194>
 80028b0:	a009883a 	mov	r4,r20
 80028b4:	8002ae00 	call	8002ae0 <_free_r>
 80028b8:	84800017 	ldw	r18,0(r16)
 80028bc:	80000c15 	stw	zero,48(r16)
 80028c0:	80c00517 	ldw	r3,20(r16)
 80028c4:	87000417 	ldw	fp,16(r16)
 80028c8:	d8c00015 	stw	r3,0(sp)
 80028cc:	00000106 	br	80028d4 <_fread_r+0x1ac>
 80028d0:	883fcb26 	beq	r17,zero,8002800 <_fread_r+0xd8>
 80028d4:	84c00415 	stw	r19,16(r16)
 80028d8:	84400515 	stw	r17,20(r16)
 80028dc:	84c00015 	stw	r19,0(r16)
 80028e0:	a009883a 	mov	r4,r20
 80028e4:	800b883a 	mov	r5,r16
 80028e8:	80042780 	call	8004278 <__srefill_r>
 80028ec:	d8c00017 	ldw	r3,0(sp)
 80028f0:	81000117 	ldw	r4,4(r16)
 80028f4:	87000415 	stw	fp,16(r16)
 80028f8:	80c00515 	stw	r3,20(r16)
 80028fc:	84800015 	stw	r18,0(r16)
 8002900:	80000115 	stw	zero,4(r16)
 8002904:	8923c83a 	sub	r17,r17,r4
 8002908:	9927883a 	add	r19,r19,r4
 800290c:	103ff026 	beq	r2,zero,80028d0 <_fread_r+0x1a8>
 8002910:	b449c83a 	sub	r4,r22,r17
 8002914:	b80b883a 	mov	r5,r23
 8002918:	8010c2c0 	call	8010c2c <__udivsi3>
 800291c:	102b883a 	mov	r21,r2
 8002920:	003fb706 	br	8002800 <_fread_r+0xd8>
 8002924:	a009883a 	mov	r4,r20
 8002928:	80023480 	call	8002348 <__sinit>
 800292c:	84400117 	ldw	r17,4(r16)
 8002930:	883f970e 	bge	r17,zero,8002790 <_fread_r+0x68>
 8002934:	003fc106 	br	800283c <_fread_r+0x114>
 8002938:	900d883a 	mov	r6,r18
 800293c:	8003eb00 	call	8003eb0 <memcpy>
 8002940:	80800117 	ldw	r2,4(r16)
 8002944:	80c00017 	ldw	r3,0(r16)
 8002948:	1485c83a 	sub	r2,r2,r18
 800294c:	1ca5883a 	add	r18,r3,r18
 8002950:	80800115 	stw	r2,4(r16)
 8002954:	84800015 	stw	r18,0(r16)
 8002958:	003fa906 	br	8002800 <_fread_r+0xd8>
 800295c:	883fd81e 	bne	r17,zero,80028c0 <_fread_r+0x198>
 8002960:	003fa706 	br	8002800 <_fread_r+0xd8>

08002964 <fread>:
 8002964:	00820074 	movhi	r2,2049
 8002968:	10999c04 	addi	r2,r2,26224
 800296c:	2011883a 	mov	r8,r4
 8002970:	11000017 	ldw	r4,0(r2)
 8002974:	defffe04 	addi	sp,sp,-8
 8002978:	2807883a 	mov	r3,r5
 800297c:	3005883a 	mov	r2,r6
 8002980:	d9c00015 	stw	r7,0(sp)
 8002984:	400b883a 	mov	r5,r8
 8002988:	180d883a 	mov	r6,r3
 800298c:	100f883a 	mov	r7,r2
 8002990:	dfc00115 	stw	ra,4(sp)
 8002994:	80027280 	call	8002728 <_fread_r>
 8002998:	dfc00117 	ldw	ra,4(sp)
 800299c:	dec00204 	addi	sp,sp,8
 80029a0:	f800283a 	ret

080029a4 <_malloc_trim_r>:
 80029a4:	defffb04 	addi	sp,sp,-20
 80029a8:	dcc00315 	stw	r19,12(sp)
 80029ac:	dc800215 	stw	r18,8(sp)
 80029b0:	dc400115 	stw	r17,4(sp)
 80029b4:	dc000015 	stw	r16,0(sp)
 80029b8:	2827883a 	mov	r19,r5
 80029bc:	dfc00415 	stw	ra,16(sp)
 80029c0:	04420074 	movhi	r17,2049
 80029c4:	8c540004 	addi	r17,r17,20480
 80029c8:	2021883a 	mov	r16,r4
 80029cc:	80115ac0 	call	80115ac <__malloc_lock>
 80029d0:	88800217 	ldw	r2,8(r17)
 80029d4:	14800117 	ldw	r18,4(r2)
 80029d8:	00bfff04 	movi	r2,-4
 80029dc:	90a4703a 	and	r18,r18,r2
 80029e0:	9083fbc4 	addi	r2,r18,4079
 80029e4:	14e7c83a 	sub	r19,r2,r19
 80029e8:	9826d33a 	srli	r19,r19,12
 80029ec:	0083ffc4 	movi	r2,4095
 80029f0:	9cffffc4 	addi	r19,r19,-1
 80029f4:	9826933a 	slli	r19,r19,12
 80029f8:	14c0060e 	bge	r2,r19,8002a14 <_malloc_trim_r+0x70>
 80029fc:	8009883a 	mov	r4,r16
 8002a00:	000b883a 	mov	r5,zero
 8002a04:	80044640 	call	8004464 <_sbrk_r>
 8002a08:	88c00217 	ldw	r3,8(r17)
 8002a0c:	1c87883a 	add	r3,r3,r18
 8002a10:	10c00a26 	beq	r2,r3,8002a3c <_malloc_trim_r+0x98>
 8002a14:	8009883a 	mov	r4,r16
 8002a18:	80115cc0 	call	80115cc <__malloc_unlock>
 8002a1c:	0005883a 	mov	r2,zero
 8002a20:	dfc00417 	ldw	ra,16(sp)
 8002a24:	dcc00317 	ldw	r19,12(sp)
 8002a28:	dc800217 	ldw	r18,8(sp)
 8002a2c:	dc400117 	ldw	r17,4(sp)
 8002a30:	dc000017 	ldw	r16,0(sp)
 8002a34:	dec00504 	addi	sp,sp,20
 8002a38:	f800283a 	ret
 8002a3c:	8009883a 	mov	r4,r16
 8002a40:	04cbc83a 	sub	r5,zero,r19
 8002a44:	80044640 	call	8004464 <_sbrk_r>
 8002a48:	00ffffc4 	movi	r3,-1
 8002a4c:	10c01326 	beq	r2,r3,8002a9c <_malloc_trim_r+0xf8>
 8002a50:	008200b4 	movhi	r2,2050
 8002a54:	10a08704 	addi	r2,r2,-32228
 8002a58:	11000017 	ldw	r4,0(r2)
 8002a5c:	88c00217 	ldw	r3,8(r17)
 8002a60:	94e5c83a 	sub	r18,r18,r19
 8002a64:	94800054 	ori	r18,r18,1
 8002a68:	24e7c83a 	sub	r19,r4,r19
 8002a6c:	1c800115 	stw	r18,4(r3)
 8002a70:	8009883a 	mov	r4,r16
 8002a74:	14c00015 	stw	r19,0(r2)
 8002a78:	80115cc0 	call	80115cc <__malloc_unlock>
 8002a7c:	00800044 	movi	r2,1
 8002a80:	dfc00417 	ldw	ra,16(sp)
 8002a84:	dcc00317 	ldw	r19,12(sp)
 8002a88:	dc800217 	ldw	r18,8(sp)
 8002a8c:	dc400117 	ldw	r17,4(sp)
 8002a90:	dc000017 	ldw	r16,0(sp)
 8002a94:	dec00504 	addi	sp,sp,20
 8002a98:	f800283a 	ret
 8002a9c:	8009883a 	mov	r4,r16
 8002aa0:	000b883a 	mov	r5,zero
 8002aa4:	80044640 	call	8004464 <_sbrk_r>
 8002aa8:	88c00217 	ldw	r3,8(r17)
 8002aac:	014003c4 	movi	r5,15
 8002ab0:	10c9c83a 	sub	r4,r2,r3
 8002ab4:	293fd70e 	bge	r5,r4,8002a14 <_malloc_trim_r+0x70>
 8002ab8:	01420074 	movhi	r5,2049
 8002abc:	29599d04 	addi	r5,r5,26228
 8002ac0:	29400017 	ldw	r5,0(r5)
 8002ac4:	21000054 	ori	r4,r4,1
 8002ac8:	19000115 	stw	r4,4(r3)
 8002acc:	1145c83a 	sub	r2,r2,r5
 8002ad0:	014200b4 	movhi	r5,2050
 8002ad4:	29608704 	addi	r5,r5,-32228
 8002ad8:	28800015 	stw	r2,0(r5)
 8002adc:	003fcd06 	br	8002a14 <_malloc_trim_r+0x70>

08002ae0 <_free_r>:
 8002ae0:	defffd04 	addi	sp,sp,-12
 8002ae4:	dc400115 	stw	r17,4(sp)
 8002ae8:	dc000015 	stw	r16,0(sp)
 8002aec:	dfc00215 	stw	ra,8(sp)
 8002af0:	2821883a 	mov	r16,r5
 8002af4:	2023883a 	mov	r17,r4
 8002af8:	28004b26 	beq	r5,zero,8002c28 <_free_r+0x148>
 8002afc:	80115ac0 	call	80115ac <__malloc_lock>
 8002b00:	823fff17 	ldw	r8,-4(r16)
 8002b04:	00bfff84 	movi	r2,-2
 8002b08:	81bffe04 	addi	r6,r16,-8
 8002b0c:	4084703a 	and	r2,r8,r2
 8002b10:	3087883a 	add	r3,r6,r2
 8002b14:	01420074 	movhi	r5,2049
 8002b18:	29540004 	addi	r5,r5,20480
 8002b1c:	1a400117 	ldw	r9,4(r3)
 8002b20:	29000217 	ldw	r4,8(r5)
 8002b24:	01ffff04 	movi	r7,-4
 8002b28:	49ce703a 	and	r7,r9,r7
 8002b2c:	20c06526 	beq	r4,r3,8002cc4 <_free_r+0x1e4>
 8002b30:	19c00115 	stw	r7,4(r3)
 8002b34:	4200004c 	andi	r8,r8,1
 8002b38:	40003026 	beq	r8,zero,8002bfc <_free_r+0x11c>
 8002b3c:	0009883a 	mov	r4,zero
 8002b40:	19d1883a 	add	r8,r3,r7
 8002b44:	42000117 	ldw	r8,4(r8)
 8002b48:	4200004c 	andi	r8,r8,1
 8002b4c:	4000061e 	bne	r8,zero,8002b68 <_free_r+0x88>
 8002b50:	11c5883a 	add	r2,r2,r7
 8002b54:	19c00217 	ldw	r7,8(r3)
 8002b58:	20004e26 	beq	r4,zero,8002c94 <_free_r+0x1b4>
 8002b5c:	18c00317 	ldw	r3,12(r3)
 8002b60:	38c00315 	stw	r3,12(r7)
 8002b64:	19c00215 	stw	r7,8(r3)
 8002b68:	11c00054 	ori	r7,r2,1
 8002b6c:	3087883a 	add	r3,r6,r2
 8002b70:	31c00115 	stw	r7,4(r6)
 8002b74:	18800015 	stw	r2,0(r3)
 8002b78:	20001a1e 	bne	r4,zero,8002be4 <_free_r+0x104>
 8002b7c:	00c07fc4 	movi	r3,511
 8002b80:	18802e2e 	bgeu	r3,r2,8002c3c <_free_r+0x15c>
 8002b84:	1006d27a 	srli	r3,r2,9
 8002b88:	01000104 	movi	r4,4
 8002b8c:	20c06636 	bltu	r4,r3,8002d28 <_free_r+0x248>
 8002b90:	1008d1ba 	srli	r4,r2,6
 8002b94:	21000e04 	addi	r4,r4,56
 8002b98:	210f883a 	add	r7,r4,r4
 8002b9c:	39cf883a 	add	r7,r7,r7
 8002ba0:	39cf883a 	add	r7,r7,r7
 8002ba4:	29cf883a 	add	r7,r5,r7
 8002ba8:	38c00217 	ldw	r3,8(r7)
 8002bac:	01420074 	movhi	r5,2049
 8002bb0:	29540004 	addi	r5,r5,20480
 8002bb4:	19c06126 	beq	r3,r7,8002d3c <_free_r+0x25c>
 8002bb8:	013fff04 	movi	r4,-4
 8002bbc:	19400117 	ldw	r5,4(r3)
 8002bc0:	290a703a 	and	r5,r5,r4
 8002bc4:	1140022e 	bgeu	r2,r5,8002bd0 <_free_r+0xf0>
 8002bc8:	18c00217 	ldw	r3,8(r3)
 8002bcc:	38fffb1e 	bne	r7,r3,8002bbc <_free_r+0xdc>
 8002bd0:	18800317 	ldw	r2,12(r3)
 8002bd4:	30800315 	stw	r2,12(r6)
 8002bd8:	30c00215 	stw	r3,8(r6)
 8002bdc:	11800215 	stw	r6,8(r2)
 8002be0:	19800315 	stw	r6,12(r3)
 8002be4:	8809883a 	mov	r4,r17
 8002be8:	dfc00217 	ldw	ra,8(sp)
 8002bec:	dc400117 	ldw	r17,4(sp)
 8002bf0:	dc000017 	ldw	r16,0(sp)
 8002bf4:	dec00304 	addi	sp,sp,12
 8002bf8:	80115cc1 	jmpi	80115cc <__malloc_unlock>
 8002bfc:	813ffe17 	ldw	r4,-8(r16)
 8002c00:	2a400204 	addi	r9,r5,8
 8002c04:	310dc83a 	sub	r6,r6,r4
 8002c08:	32000217 	ldw	r8,8(r6)
 8002c0c:	1105883a 	add	r2,r2,r4
 8002c10:	42404326 	beq	r8,r9,8002d20 <_free_r+0x240>
 8002c14:	32400317 	ldw	r9,12(r6)
 8002c18:	0009883a 	mov	r4,zero
 8002c1c:	42400315 	stw	r9,12(r8)
 8002c20:	4a000215 	stw	r8,8(r9)
 8002c24:	003fc606 	br	8002b40 <_free_r+0x60>
 8002c28:	dfc00217 	ldw	ra,8(sp)
 8002c2c:	dc400117 	ldw	r17,4(sp)
 8002c30:	dc000017 	ldw	r16,0(sp)
 8002c34:	dec00304 	addi	sp,sp,12
 8002c38:	f800283a 	ret
 8002c3c:	1004d0fa 	srli	r2,r2,3
 8002c40:	02000044 	movi	r8,1
 8002c44:	29c00117 	ldw	r7,4(r5)
 8002c48:	1087883a 	add	r3,r2,r2
 8002c4c:	18c7883a 	add	r3,r3,r3
 8002c50:	1005d0ba 	srai	r2,r2,2
 8002c54:	18c7883a 	add	r3,r3,r3
 8002c58:	28c7883a 	add	r3,r5,r3
 8002c5c:	19000217 	ldw	r4,8(r3)
 8002c60:	4084983a 	sll	r2,r8,r2
 8002c64:	30c00315 	stw	r3,12(r6)
 8002c68:	31000215 	stw	r4,8(r6)
 8002c6c:	11c4b03a 	or	r2,r2,r7
 8002c70:	21800315 	stw	r6,12(r4)
 8002c74:	8809883a 	mov	r4,r17
 8002c78:	28800115 	stw	r2,4(r5)
 8002c7c:	19800215 	stw	r6,8(r3)
 8002c80:	dfc00217 	ldw	ra,8(sp)
 8002c84:	dc400117 	ldw	r17,4(sp)
 8002c88:	dc000017 	ldw	r16,0(sp)
 8002c8c:	dec00304 	addi	sp,sp,12
 8002c90:	80115cc1 	jmpi	80115cc <__malloc_unlock>
 8002c94:	02020074 	movhi	r8,2049
 8002c98:	42140204 	addi	r8,r8,20488
 8002c9c:	3a3faf1e 	bne	r7,r8,8002b5c <_free_r+0x7c>
 8002ca0:	29800515 	stw	r6,20(r5)
 8002ca4:	29800415 	stw	r6,16(r5)
 8002ca8:	11000054 	ori	r4,r2,1
 8002cac:	3087883a 	add	r3,r6,r2
 8002cb0:	31c00315 	stw	r7,12(r6)
 8002cb4:	31c00215 	stw	r7,8(r6)
 8002cb8:	31000115 	stw	r4,4(r6)
 8002cbc:	18800015 	stw	r2,0(r3)
 8002cc0:	003fc806 	br	8002be4 <_free_r+0x104>
 8002cc4:	4200004c 	andi	r8,r8,1
 8002cc8:	3885883a 	add	r2,r7,r2
 8002ccc:	4000071e 	bne	r8,zero,8002cec <_free_r+0x20c>
 8002cd0:	81fffe17 	ldw	r7,-8(r16)
 8002cd4:	31cdc83a 	sub	r6,r6,r7
 8002cd8:	30c00317 	ldw	r3,12(r6)
 8002cdc:	31000217 	ldw	r4,8(r6)
 8002ce0:	11c5883a 	add	r2,r2,r7
 8002ce4:	20c00315 	stw	r3,12(r4)
 8002ce8:	19000215 	stw	r4,8(r3)
 8002cec:	00c20074 	movhi	r3,2049
 8002cf0:	18d99e04 	addi	r3,r3,26232
 8002cf4:	18c00017 	ldw	r3,0(r3)
 8002cf8:	11000054 	ori	r4,r2,1
 8002cfc:	31000115 	stw	r4,4(r6)
 8002d00:	29800215 	stw	r6,8(r5)
 8002d04:	10ffb736 	bltu	r2,r3,8002be4 <_free_r+0x104>
 8002d08:	008200b4 	movhi	r2,2050
 8002d0c:	10a07d04 	addi	r2,r2,-32268
 8002d10:	11400017 	ldw	r5,0(r2)
 8002d14:	8809883a 	mov	r4,r17
 8002d18:	80029a40 	call	80029a4 <_malloc_trim_r>
 8002d1c:	003fb106 	br	8002be4 <_free_r+0x104>
 8002d20:	01000044 	movi	r4,1
 8002d24:	003f8606 	br	8002b40 <_free_r+0x60>
 8002d28:	01000504 	movi	r4,20
 8002d2c:	20c00b36 	bltu	r4,r3,8002d5c <_free_r+0x27c>
 8002d30:	190016c4 	addi	r4,r3,91
 8002d34:	210f883a 	add	r7,r4,r4
 8002d38:	003f9806 	br	8002b9c <_free_r+0xbc>
 8002d3c:	2009d0ba 	srai	r4,r4,2
 8002d40:	00800044 	movi	r2,1
 8002d44:	29c00117 	ldw	r7,4(r5)
 8002d48:	1108983a 	sll	r4,r2,r4
 8002d4c:	1805883a 	mov	r2,r3
 8002d50:	21c8b03a 	or	r4,r4,r7
 8002d54:	29000115 	stw	r4,4(r5)
 8002d58:	003f9e06 	br	8002bd4 <_free_r+0xf4>
 8002d5c:	01001504 	movi	r4,84
 8002d60:	20c00436 	bltu	r4,r3,8002d74 <_free_r+0x294>
 8002d64:	1008d33a 	srli	r4,r2,12
 8002d68:	21001b84 	addi	r4,r4,110
 8002d6c:	210f883a 	add	r7,r4,r4
 8002d70:	003f8a06 	br	8002b9c <_free_r+0xbc>
 8002d74:	01005504 	movi	r4,340
 8002d78:	20c00436 	bltu	r4,r3,8002d8c <_free_r+0x2ac>
 8002d7c:	1008d3fa 	srli	r4,r2,15
 8002d80:	21001dc4 	addi	r4,r4,119
 8002d84:	210f883a 	add	r7,r4,r4
 8002d88:	003f8406 	br	8002b9c <_free_r+0xbc>
 8002d8c:	01015504 	movi	r4,1364
 8002d90:	20c00436 	bltu	r4,r3,8002da4 <_free_r+0x2c4>
 8002d94:	1008d4ba 	srli	r4,r2,18
 8002d98:	21001f04 	addi	r4,r4,124
 8002d9c:	210f883a 	add	r7,r4,r4
 8002da0:	003f7e06 	br	8002b9c <_free_r+0xbc>
 8002da4:	01c03f04 	movi	r7,252
 8002da8:	01001f84 	movi	r4,126
 8002dac:	003f7b06 	br	8002b9c <_free_r+0xbc>

08002db0 <fscanf>:
 8002db0:	defffd04 	addi	sp,sp,-12
 8002db4:	2005883a 	mov	r2,r4
 8002db8:	dfc00015 	stw	ra,0(sp)
 8002dbc:	d9800115 	stw	r6,4(sp)
 8002dc0:	d9c00215 	stw	r7,8(sp)
 8002dc4:	00c20074 	movhi	r3,2049
 8002dc8:	18d99c04 	addi	r3,r3,26224
 8002dcc:	19000017 	ldw	r4,0(r3)
 8002dd0:	280d883a 	mov	r6,r5
 8002dd4:	d9c00104 	addi	r7,sp,4
 8002dd8:	100b883a 	mov	r5,r2
 8002ddc:	800669c0 	call	800669c <__svfscanf_r>
 8002de0:	dfc00017 	ldw	ra,0(sp)
 8002de4:	dec00304 	addi	sp,sp,12
 8002de8:	f800283a 	ret

08002dec <_fscanf_r>:
 8002dec:	defffe04 	addi	sp,sp,-8
 8002df0:	dfc00015 	stw	ra,0(sp)
 8002df4:	d9c00115 	stw	r7,4(sp)
 8002df8:	d9c00104 	addi	r7,sp,4
 8002dfc:	800669c0 	call	800669c <__svfscanf_r>
 8002e00:	dfc00017 	ldw	ra,0(sp)
 8002e04:	dec00204 	addi	sp,sp,8
 8002e08:	f800283a 	ret

08002e0c <_fseek_r>:
 8002e0c:	deffe804 	addi	sp,sp,-96
 8002e10:	dd001315 	stw	r20,76(sp)
 8002e14:	dc801115 	stw	r18,68(sp)
 8002e18:	dc401015 	stw	r17,64(sp)
 8002e1c:	dc000f15 	stw	r16,60(sp)
 8002e20:	dfc01715 	stw	ra,92(sp)
 8002e24:	ddc01615 	stw	r23,88(sp)
 8002e28:	dd801515 	stw	r22,84(sp)
 8002e2c:	dd401415 	stw	r21,80(sp)
 8002e30:	dcc01215 	stw	r19,72(sp)
 8002e34:	2023883a 	mov	r17,r4
 8002e38:	2821883a 	mov	r16,r5
 8002e3c:	3029883a 	mov	r20,r6
 8002e40:	3825883a 	mov	r18,r7
 8002e44:	20000226 	beq	r4,zero,8002e50 <_fseek_r+0x44>
 8002e48:	20800e17 	ldw	r2,56(r4)
 8002e4c:	10006226 	beq	r2,zero,8002fd8 <_fseek_r+0x1cc>
 8002e50:	80c0030b 	ldhu	r3,12(r16)
 8002e54:	00804204 	movi	r2,264
 8002e58:	18c0420c 	andi	r3,r3,264
 8002e5c:	18806326 	beq	r3,r2,8002fec <_fseek_r+0x1e0>
 8002e60:	84c00a17 	ldw	r19,40(r16)
 8002e64:	98010226 	beq	r19,zero,8003270 <_fseek_r+0x464>
 8002e68:	00800044 	movi	r2,1
 8002e6c:	90803d26 	beq	r18,r2,8002f64 <_fseek_r+0x158>
 8002e70:	00800084 	movi	r2,2
 8002e74:	90800126 	beq	r18,r2,8002e7c <_fseek_r+0x70>
 8002e78:	90002c1e 	bne	r18,zero,8002f2c <_fseek_r+0x120>
 8002e7c:	80800417 	ldw	r2,16(r16)
 8002e80:	002d883a 	mov	r22,zero
 8002e84:	002b883a 	mov	r21,zero
 8002e88:	1000e526 	beq	r2,zero,8003220 <_fseek_r+0x414>
 8002e8c:	80c0030b 	ldhu	r3,12(r16)
 8002e90:	1882068c 	andi	r2,r3,2074
 8002e94:	1809883a 	mov	r4,r3
 8002e98:	10000a1e 	bne	r2,zero,8002ec4 <_fseek_r+0xb8>
 8002e9c:	1881000c 	andi	r2,r3,1024
 8002ea0:	10bfffcc 	andi	r2,r2,65535
 8002ea4:	10a0001c 	xori	r2,r2,32768
 8002ea8:	10a00004 	addi	r2,r2,-32768
 8002eac:	1000631e 	bne	r2,zero,800303c <_fseek_r+0x230>
 8002eb0:	00820034 	movhi	r2,2048
 8002eb4:	10916904 	addi	r2,r2,17828
 8002eb8:	98805026 	beq	r19,r2,8002ffc <_fseek_r+0x1f0>
 8002ebc:	18c20014 	ori	r3,r3,2048
 8002ec0:	80c0030d 	sth	r3,12(r16)
 8002ec4:	8809883a 	mov	r4,r17
 8002ec8:	800b883a 	mov	r5,r16
 8002ecc:	800208c0 	call	800208c <_fflush_r>
 8002ed0:	1000181e 	bne	r2,zero,8002f34 <_fseek_r+0x128>
 8002ed4:	81400717 	ldw	r5,28(r16)
 8002ed8:	8809883a 	mov	r4,r17
 8002edc:	a00d883a 	mov	r6,r20
 8002ee0:	900f883a 	mov	r7,r18
 8002ee4:	983ee83a 	callr	r19
 8002ee8:	00ffffc4 	movi	r3,-1
 8002eec:	10c01126 	beq	r2,r3,8002f34 <_fseek_r+0x128>
 8002ef0:	81400c17 	ldw	r5,48(r16)
 8002ef4:	28000526 	beq	r5,zero,8002f0c <_fseek_r+0x100>
 8002ef8:	80801004 	addi	r2,r16,64
 8002efc:	28800226 	beq	r5,r2,8002f08 <_fseek_r+0xfc>
 8002f00:	8809883a 	mov	r4,r17
 8002f04:	8002ae00 	call	8002ae0 <_free_r>
 8002f08:	80000c15 	stw	zero,48(r16)
 8002f0c:	8080030b 	ldhu	r2,12(r16)
 8002f10:	80c00417 	ldw	r3,16(r16)
 8002f14:	80000115 	stw	zero,4(r16)
 8002f18:	10bdf7cc 	andi	r2,r2,63455
 8002f1c:	8080030d 	sth	r2,12(r16)
 8002f20:	80c00015 	stw	r3,0(r16)
 8002f24:	0005883a 	mov	r2,zero
 8002f28:	00000306 	br	8002f38 <_fseek_r+0x12c>
 8002f2c:	00800584 	movi	r2,22
 8002f30:	88800015 	stw	r2,0(r17)
 8002f34:	00bfffc4 	movi	r2,-1
 8002f38:	dfc01717 	ldw	ra,92(sp)
 8002f3c:	ddc01617 	ldw	r23,88(sp)
 8002f40:	dd801517 	ldw	r22,84(sp)
 8002f44:	dd401417 	ldw	r21,80(sp)
 8002f48:	dd001317 	ldw	r20,76(sp)
 8002f4c:	dcc01217 	ldw	r19,72(sp)
 8002f50:	dc801117 	ldw	r18,68(sp)
 8002f54:	dc401017 	ldw	r17,64(sp)
 8002f58:	dc000f17 	ldw	r16,60(sp)
 8002f5c:	dec01804 	addi	sp,sp,96
 8002f60:	f800283a 	ret
 8002f64:	8809883a 	mov	r4,r17
 8002f68:	800b883a 	mov	r5,r16
 8002f6c:	800208c0 	call	800208c <_fflush_r>
 8002f70:	8080030b 	ldhu	r2,12(r16)
 8002f74:	10c4000c 	andi	r3,r2,4096
 8002f78:	18ffffcc 	andi	r3,r3,65535
 8002f7c:	18e0001c 	xori	r3,r3,32768
 8002f80:	18e00004 	addi	r3,r3,-32768
 8002f84:	18007d26 	beq	r3,zero,800317c <_fseek_r+0x370>
 8002f88:	85401417 	ldw	r21,80(r16)
 8002f8c:	10c0010c 	andi	r3,r2,4
 8002f90:	18ffffcc 	andi	r3,r3,65535
 8002f94:	18e0001c 	xori	r3,r3,32768
 8002f98:	18e00004 	addi	r3,r3,-32768
 8002f9c:	18005f1e 	bne	r3,zero,800311c <_fseek_r+0x310>
 8002fa0:	1080020c 	andi	r2,r2,8
 8002fa4:	10bfffcc 	andi	r2,r2,65535
 8002fa8:	10a0001c 	xori	r2,r2,32768
 8002fac:	10a00004 	addi	r2,r2,-32768
 8002fb0:	10007026 	beq	r2,zero,8003174 <_fseek_r+0x368>
 8002fb4:	80c00017 	ldw	r3,0(r16)
 8002fb8:	80800417 	ldw	r2,16(r16)
 8002fbc:	18000226 	beq	r3,zero,8002fc8 <_fseek_r+0x1bc>
 8002fc0:	1887c83a 	sub	r3,r3,r2
 8002fc4:	a8eb883a 	add	r21,r21,r3
 8002fc8:	a569883a 	add	r20,r20,r21
 8002fcc:	05800044 	movi	r22,1
 8002fd0:	0025883a 	mov	r18,zero
 8002fd4:	003fac06 	br	8002e88 <_fseek_r+0x7c>
 8002fd8:	80023480 	call	8002348 <__sinit>
 8002fdc:	80c0030b 	ldhu	r3,12(r16)
 8002fe0:	00804204 	movi	r2,264
 8002fe4:	18c0420c 	andi	r3,r3,264
 8002fe8:	18bf9d1e 	bne	r3,r2,8002e60 <_fseek_r+0x54>
 8002fec:	8809883a 	mov	r4,r17
 8002ff0:	800b883a 	mov	r5,r16
 8002ff4:	800208c0 	call	800208c <_fflush_r>
 8002ff8:	003f9906 	br	8002e60 <_fseek_r+0x54>
 8002ffc:	8140038f 	ldh	r5,14(r16)
 8003000:	283fae16 	blt	r5,zero,8002ebc <_fseek_r+0xb0>
 8003004:	8809883a 	mov	r4,r17
 8003008:	d80d883a 	mov	r6,sp
 800300c:	80032a40 	call	80032a4 <_fstat_r>
 8003010:	1000741e 	bne	r2,zero,80031e4 <_fseek_r+0x3d8>
 8003014:	d8c00117 	ldw	r3,4(sp)
 8003018:	00a00014 	movui	r2,32768
 800301c:	18fc000c 	andi	r3,r3,61440
 8003020:	1880701e 	bne	r3,r2,80031e4 <_fseek_r+0x3d8>
 8003024:	8100030b 	ldhu	r4,12(r16)
 8003028:	00810004 	movi	r2,1024
 800302c:	80801315 	stw	r2,76(r16)
 8003030:	2084b03a 	or	r2,r4,r2
 8003034:	1009883a 	mov	r4,r2
 8003038:	8080030d 	sth	r2,12(r16)
 800303c:	90003f1e 	bne	r18,zero,800313c <_fseek_r+0x330>
 8003040:	a02f883a 	mov	r23,r20
 8003044:	b000461e 	bne	r22,zero,8003160 <_fseek_r+0x354>
 8003048:	2084000c 	andi	r2,r4,4096
 800304c:	10bfffcc 	andi	r2,r2,65535
 8003050:	10a0001c 	xori	r2,r2,32768
 8003054:	10a00004 	addi	r2,r2,-32768
 8003058:	10007526 	beq	r2,zero,8003230 <_fseek_r+0x424>
 800305c:	80801417 	ldw	r2,80(r16)
 8003060:	80c00117 	ldw	r3,4(r16)
 8003064:	81400c17 	ldw	r5,48(r16)
 8003068:	10ebc83a 	sub	r21,r2,r3
 800306c:	28007926 	beq	r5,zero,8003254 <_fseek_r+0x448>
 8003070:	81c00f17 	ldw	r7,60(r16)
 8003074:	a9ebc83a 	sub	r21,r21,r7
 8003078:	80800e17 	ldw	r2,56(r16)
 800307c:	81800417 	ldw	r6,16(r16)
 8003080:	a8eb883a 	add	r21,r21,r3
 8003084:	1185c83a 	sub	r2,r2,r6
 8003088:	a8abc83a 	sub	r21,r21,r2
 800308c:	3885883a 	add	r2,r7,r2
 8003090:	2208000c 	andi	r8,r4,8192
 8003094:	423fffcc 	andi	r8,r8,65535
 8003098:	4220001c 	xori	r8,r8,32768
 800309c:	42200004 	addi	r8,r8,-32768
 80030a0:	4000031e 	bne	r8,zero,80030b0 <_fseek_r+0x2a4>
 80030a4:	bd400216 	blt	r23,r21,80030b0 <_fseek_r+0x2a4>
 80030a8:	a887883a 	add	r3,r21,r2
 80030ac:	b8c03d36 	bltu	r23,r3,80031a4 <_fseek_r+0x398>
 80030b0:	85401317 	ldw	r21,76(r16)
 80030b4:	81400717 	ldw	r5,28(r16)
 80030b8:	8809883a 	mov	r4,r17
 80030bc:	056bc83a 	sub	r21,zero,r21
 80030c0:	bd6a703a 	and	r21,r23,r21
 80030c4:	a80d883a 	mov	r6,r21
 80030c8:	000f883a 	mov	r7,zero
 80030cc:	983ee83a 	callr	r19
 80030d0:	00ffffc4 	movi	r3,-1
 80030d4:	10ff7b26 	beq	r2,r3,8002ec4 <_fseek_r+0xb8>
 80030d8:	80800417 	ldw	r2,16(r16)
 80030dc:	81400c17 	ldw	r5,48(r16)
 80030e0:	80000115 	stw	zero,4(r16)
 80030e4:	80800015 	stw	r2,0(r16)
 80030e8:	28000526 	beq	r5,zero,8003100 <_fseek_r+0x2f4>
 80030ec:	80801004 	addi	r2,r16,64
 80030f0:	28800226 	beq	r5,r2,80030fc <_fseek_r+0x2f0>
 80030f4:	8809883a 	mov	r4,r17
 80030f8:	8002ae00 	call	8002ae0 <_free_r>
 80030fc:	80000c15 	stw	zero,48(r16)
 8003100:	8080030b 	ldhu	r2,12(r16)
 8003104:	bd6fc83a 	sub	r23,r23,r21
 8003108:	10bff7cc 	andi	r2,r2,65503
 800310c:	8080030d 	sth	r2,12(r16)
 8003110:	b800361e 	bne	r23,zero,80031ec <_fseek_r+0x3e0>
 8003114:	0005883a 	mov	r2,zero
 8003118:	003f8706 	br	8002f38 <_fseek_r+0x12c>
 800311c:	80c00117 	ldw	r3,4(r16)
 8003120:	80800c17 	ldw	r2,48(r16)
 8003124:	a8ebc83a 	sub	r21,r21,r3
 8003128:	10001226 	beq	r2,zero,8003174 <_fseek_r+0x368>
 800312c:	80c00f17 	ldw	r3,60(r16)
 8003130:	80800417 	ldw	r2,16(r16)
 8003134:	a8ebc83a 	sub	r21,r21,r3
 8003138:	003fa306 	br	8002fc8 <_fseek_r+0x1bc>
 800313c:	8140038f 	ldh	r5,14(r16)
 8003140:	8809883a 	mov	r4,r17
 8003144:	d80d883a 	mov	r6,sp
 8003148:	80032a40 	call	80032a4 <_fstat_r>
 800314c:	103f5d1e 	bne	r2,zero,8002ec4 <_fseek_r+0xb8>
 8003150:	ddc00417 	ldw	r23,16(sp)
 8003154:	8100030b 	ldhu	r4,12(r16)
 8003158:	a5ef883a 	add	r23,r20,r23
 800315c:	b03fba26 	beq	r22,zero,8003048 <_fseek_r+0x23c>
 8003160:	81400c17 	ldw	r5,48(r16)
 8003164:	80c00117 	ldw	r3,4(r16)
 8003168:	28003a26 	beq	r5,zero,8003254 <_fseek_r+0x448>
 800316c:	81c00f17 	ldw	r7,60(r16)
 8003170:	003fc106 	br	8003078 <_fseek_r+0x26c>
 8003174:	80800417 	ldw	r2,16(r16)
 8003178:	003f9306 	br	8002fc8 <_fseek_r+0x1bc>
 800317c:	81400717 	ldw	r5,28(r16)
 8003180:	8809883a 	mov	r4,r17
 8003184:	000d883a 	mov	r6,zero
 8003188:	900f883a 	mov	r7,r18
 800318c:	983ee83a 	callr	r19
 8003190:	102b883a 	mov	r21,r2
 8003194:	00bfffc4 	movi	r2,-1
 8003198:	a8bf6626 	beq	r21,r2,8002f34 <_fseek_r+0x128>
 800319c:	8080030b 	ldhu	r2,12(r16)
 80031a0:	003f7a06 	br	8002f8c <_fseek_r+0x180>
 80031a4:	bd6bc83a 	sub	r21,r23,r21
 80031a8:	354d883a 	add	r6,r6,r21
 80031ac:	1545c83a 	sub	r2,r2,r21
 80031b0:	81800015 	stw	r6,0(r16)
 80031b4:	80800115 	stw	r2,4(r16)
 80031b8:	28000626 	beq	r5,zero,80031d4 <_fseek_r+0x3c8>
 80031bc:	80801004 	addi	r2,r16,64
 80031c0:	28800326 	beq	r5,r2,80031d0 <_fseek_r+0x3c4>
 80031c4:	8809883a 	mov	r4,r17
 80031c8:	8002ae00 	call	8002ae0 <_free_r>
 80031cc:	8100030b 	ldhu	r4,12(r16)
 80031d0:	80000c15 	stw	zero,48(r16)
 80031d4:	213ff7cc 	andi	r4,r4,65503
 80031d8:	8100030d 	sth	r4,12(r16)
 80031dc:	0005883a 	mov	r2,zero
 80031e0:	003f5506 	br	8002f38 <_fseek_r+0x12c>
 80031e4:	80c0030b 	ldhu	r3,12(r16)
 80031e8:	003f3406 	br	8002ebc <_fseek_r+0xb0>
 80031ec:	8809883a 	mov	r4,r17
 80031f0:	800b883a 	mov	r5,r16
 80031f4:	80042780 	call	8004278 <__srefill_r>
 80031f8:	103f321e 	bne	r2,zero,8002ec4 <_fseek_r+0xb8>
 80031fc:	80800117 	ldw	r2,4(r16)
 8003200:	15ff3036 	bltu	r2,r23,8002ec4 <_fseek_r+0xb8>
 8003204:	80c00017 	ldw	r3,0(r16)
 8003208:	15c5c83a 	sub	r2,r2,r23
 800320c:	80800115 	stw	r2,4(r16)
 8003210:	1def883a 	add	r23,r3,r23
 8003214:	85c00015 	stw	r23,0(r16)
 8003218:	0005883a 	mov	r2,zero
 800321c:	003f4606 	br	8002f38 <_fseek_r+0x12c>
 8003220:	8809883a 	mov	r4,r17
 8003224:	800b883a 	mov	r5,r16
 8003228:	800355c0 	call	800355c <__smakebuf_r>
 800322c:	003f1706 	br	8002e8c <_fseek_r+0x80>
 8003230:	81400717 	ldw	r5,28(r16)
 8003234:	8809883a 	mov	r4,r17
 8003238:	000d883a 	mov	r6,zero
 800323c:	01c00044 	movi	r7,1
 8003240:	983ee83a 	callr	r19
 8003244:	00ffffc4 	movi	r3,-1
 8003248:	10ff1e26 	beq	r2,r3,8002ec4 <_fseek_r+0xb8>
 800324c:	8100030b 	ldhu	r4,12(r16)
 8003250:	003f8306 	br	8003060 <_fseek_r+0x254>
 8003254:	80800017 	ldw	r2,0(r16)
 8003258:	81800417 	ldw	r6,16(r16)
 800325c:	000b883a 	mov	r5,zero
 8003260:	1185c83a 	sub	r2,r2,r6
 8003264:	a8abc83a 	sub	r21,r21,r2
 8003268:	1885883a 	add	r2,r3,r2
 800326c:	003f8806 	br	8003090 <_fseek_r+0x284>
 8003270:	00800744 	movi	r2,29
 8003274:	88800015 	stw	r2,0(r17)
 8003278:	00bfffc4 	movi	r2,-1
 800327c:	003f2e06 	br	8002f38 <_fseek_r+0x12c>

08003280 <fseek>:
 8003280:	00820074 	movhi	r2,2049
 8003284:	10999c04 	addi	r2,r2,26224
 8003288:	2007883a 	mov	r3,r4
 800328c:	11000017 	ldw	r4,0(r2)
 8003290:	2805883a 	mov	r2,r5
 8003294:	300f883a 	mov	r7,r6
 8003298:	180b883a 	mov	r5,r3
 800329c:	100d883a 	mov	r6,r2
 80032a0:	8002e0c1 	jmpi	8002e0c <_fseek_r>

080032a4 <_fstat_r>:
 80032a4:	defffd04 	addi	sp,sp,-12
 80032a8:	dc400115 	stw	r17,4(sp)
 80032ac:	dc000015 	stw	r16,0(sp)
 80032b0:	2023883a 	mov	r17,r4
 80032b4:	040200b4 	movhi	r16,2050
 80032b8:	84207a04 	addi	r16,r16,-32280
 80032bc:	2809883a 	mov	r4,r5
 80032c0:	300b883a 	mov	r5,r6
 80032c4:	dfc00215 	stw	ra,8(sp)
 80032c8:	80000015 	stw	zero,0(r16)
 80032cc:	80111800 	call	8011180 <fstat>
 80032d0:	00ffffc4 	movi	r3,-1
 80032d4:	10c00526 	beq	r2,r3,80032ec <_fstat_r+0x48>
 80032d8:	dfc00217 	ldw	ra,8(sp)
 80032dc:	dc400117 	ldw	r17,4(sp)
 80032e0:	dc000017 	ldw	r16,0(sp)
 80032e4:	dec00304 	addi	sp,sp,12
 80032e8:	f800283a 	ret
 80032ec:	80c00017 	ldw	r3,0(r16)
 80032f0:	183ff926 	beq	r3,zero,80032d8 <_fstat_r+0x34>
 80032f4:	88c00015 	stw	r3,0(r17)
 80032f8:	dfc00217 	ldw	ra,8(sp)
 80032fc:	dc400117 	ldw	r17,4(sp)
 8003300:	dc000017 	ldw	r16,0(sp)
 8003304:	dec00304 	addi	sp,sp,12
 8003308:	f800283a 	ret

0800330c <_fwalk>:
 800330c:	defff904 	addi	sp,sp,-28
 8003310:	dcc00315 	stw	r19,12(sp)
 8003314:	24c0b804 	addi	r19,r4,736
 8003318:	dd400515 	stw	r21,20(sp)
 800331c:	dd000415 	stw	r20,16(sp)
 8003320:	dfc00615 	stw	ra,24(sp)
 8003324:	dc800215 	stw	r18,8(sp)
 8003328:	dc400115 	stw	r17,4(sp)
 800332c:	dc000015 	stw	r16,0(sp)
 8003330:	282b883a 	mov	r21,r5
 8003334:	0029883a 	mov	r20,zero
 8003338:	80025500 	call	8002550 <__sfp_lock_acquire>
 800333c:	98001226 	beq	r19,zero,8003388 <_fwalk+0x7c>
 8003340:	04bfffc4 	movi	r18,-1
 8003344:	9c400117 	ldw	r17,4(r19)
 8003348:	9c000217 	ldw	r16,8(r19)
 800334c:	8c7fffc4 	addi	r17,r17,-1
 8003350:	88000b16 	blt	r17,zero,8003380 <_fwalk+0x74>
 8003354:	84000304 	addi	r16,r16,12
 8003358:	80c0000f 	ldh	r3,0(r16)
 800335c:	8c7fffc4 	addi	r17,r17,-1
 8003360:	813ffd04 	addi	r4,r16,-12
 8003364:	18000426 	beq	r3,zero,8003378 <_fwalk+0x6c>
 8003368:	80c0008f 	ldh	r3,2(r16)
 800336c:	1c800226 	beq	r3,r18,8003378 <_fwalk+0x6c>
 8003370:	a83ee83a 	callr	r21
 8003374:	a0a8b03a 	or	r20,r20,r2
 8003378:	84001704 	addi	r16,r16,92
 800337c:	8cbff61e 	bne	r17,r18,8003358 <_fwalk+0x4c>
 8003380:	9cc00017 	ldw	r19,0(r19)
 8003384:	983fef1e 	bne	r19,zero,8003344 <_fwalk+0x38>
 8003388:	80025540 	call	8002554 <__sfp_lock_release>
 800338c:	a005883a 	mov	r2,r20
 8003390:	dfc00617 	ldw	ra,24(sp)
 8003394:	dd400517 	ldw	r21,20(sp)
 8003398:	dd000417 	ldw	r20,16(sp)
 800339c:	dcc00317 	ldw	r19,12(sp)
 80033a0:	dc800217 	ldw	r18,8(sp)
 80033a4:	dc400117 	ldw	r17,4(sp)
 80033a8:	dc000017 	ldw	r16,0(sp)
 80033ac:	dec00704 	addi	sp,sp,28
 80033b0:	f800283a 	ret

080033b4 <_fwalk_reent>:
 80033b4:	defff804 	addi	sp,sp,-32
 80033b8:	dcc00315 	stw	r19,12(sp)
 80033bc:	24c0b804 	addi	r19,r4,736
 80033c0:	dd800615 	stw	r22,24(sp)
 80033c4:	dd400515 	stw	r21,20(sp)
 80033c8:	dd000415 	stw	r20,16(sp)
 80033cc:	dfc00715 	stw	ra,28(sp)
 80033d0:	dc800215 	stw	r18,8(sp)
 80033d4:	dc400115 	stw	r17,4(sp)
 80033d8:	dc000015 	stw	r16,0(sp)
 80033dc:	2029883a 	mov	r20,r4
 80033e0:	282b883a 	mov	r21,r5
 80033e4:	002d883a 	mov	r22,zero
 80033e8:	80025500 	call	8002550 <__sfp_lock_acquire>
 80033ec:	98001326 	beq	r19,zero,800343c <_fwalk_reent+0x88>
 80033f0:	04bfffc4 	movi	r18,-1
 80033f4:	9c400117 	ldw	r17,4(r19)
 80033f8:	9c000217 	ldw	r16,8(r19)
 80033fc:	8c7fffc4 	addi	r17,r17,-1
 8003400:	88000c16 	blt	r17,zero,8003434 <_fwalk_reent+0x80>
 8003404:	84000304 	addi	r16,r16,12
 8003408:	80c0000f 	ldh	r3,0(r16)
 800340c:	8c7fffc4 	addi	r17,r17,-1
 8003410:	817ffd04 	addi	r5,r16,-12
 8003414:	18000526 	beq	r3,zero,800342c <_fwalk_reent+0x78>
 8003418:	80c0008f 	ldh	r3,2(r16)
 800341c:	a009883a 	mov	r4,r20
 8003420:	1c800226 	beq	r3,r18,800342c <_fwalk_reent+0x78>
 8003424:	a83ee83a 	callr	r21
 8003428:	b0acb03a 	or	r22,r22,r2
 800342c:	84001704 	addi	r16,r16,92
 8003430:	8cbff51e 	bne	r17,r18,8003408 <_fwalk_reent+0x54>
 8003434:	9cc00017 	ldw	r19,0(r19)
 8003438:	983fee1e 	bne	r19,zero,80033f4 <_fwalk_reent+0x40>
 800343c:	80025540 	call	8002554 <__sfp_lock_release>
 8003440:	b005883a 	mov	r2,r22
 8003444:	dfc00717 	ldw	ra,28(sp)
 8003448:	dd800617 	ldw	r22,24(sp)
 800344c:	dd400517 	ldw	r21,20(sp)
 8003450:	dd000417 	ldw	r20,16(sp)
 8003454:	dcc00317 	ldw	r19,12(sp)
 8003458:	dc800217 	ldw	r18,8(sp)
 800345c:	dc400117 	ldw	r17,4(sp)
 8003460:	dc000017 	ldw	r16,0(sp)
 8003464:	dec00804 	addi	sp,sp,32
 8003468:	f800283a 	ret

0800346c <_fwrite_r>:
 800346c:	defff604 	addi	sp,sp,-40
 8003470:	dc000515 	stw	r16,20(sp)
 8003474:	d9400315 	stw	r5,12(sp)
 8003478:	2021883a 	mov	r16,r4
 800347c:	300b883a 	mov	r5,r6
 8003480:	3809883a 	mov	r4,r7
 8003484:	dcc00815 	stw	r19,32(sp)
 8003488:	dc800715 	stw	r18,28(sp)
 800348c:	dc400615 	stw	r17,24(sp)
 8003490:	dfc00915 	stw	ra,36(sp)
 8003494:	3027883a 	mov	r19,r6
 8003498:	3823883a 	mov	r17,r7
 800349c:	8001a6c0 	call	8001a6c <__mulsi3>
 80034a0:	1025883a 	mov	r18,r2
 80034a4:	d8800415 	stw	r2,16(sp)
 80034a8:	d8800215 	stw	r2,8(sp)
 80034ac:	d8800304 	addi	r2,sp,12
 80034b0:	d8800015 	stw	r2,0(sp)
 80034b4:	00800044 	movi	r2,1
 80034b8:	d8800115 	stw	r2,4(sp)
 80034bc:	80000226 	beq	r16,zero,80034c8 <_fwrite_r+0x5c>
 80034c0:	80800e17 	ldw	r2,56(r16)
 80034c4:	10001226 	beq	r2,zero,8003510 <_fwrite_r+0xa4>
 80034c8:	d9400a17 	ldw	r5,40(sp)
 80034cc:	8009883a 	mov	r4,r16
 80034d0:	d80d883a 	mov	r6,sp
 80034d4:	80099580 	call	8009958 <__sfvwrite_r>
 80034d8:	10000526 	beq	r2,zero,80034f0 <_fwrite_r+0x84>
 80034dc:	d9000217 	ldw	r4,8(sp)
 80034e0:	980b883a 	mov	r5,r19
 80034e4:	9109c83a 	sub	r4,r18,r4
 80034e8:	8010c2c0 	call	8010c2c <__udivsi3>
 80034ec:	1023883a 	mov	r17,r2
 80034f0:	8805883a 	mov	r2,r17
 80034f4:	dfc00917 	ldw	ra,36(sp)
 80034f8:	dcc00817 	ldw	r19,32(sp)
 80034fc:	dc800717 	ldw	r18,28(sp)
 8003500:	dc400617 	ldw	r17,24(sp)
 8003504:	dc000517 	ldw	r16,20(sp)
 8003508:	dec00a04 	addi	sp,sp,40
 800350c:	f800283a 	ret
 8003510:	8009883a 	mov	r4,r16
 8003514:	80023480 	call	8002348 <__sinit>
 8003518:	003feb06 	br	80034c8 <_fwrite_r+0x5c>

0800351c <fwrite>:
 800351c:	00820074 	movhi	r2,2049
 8003520:	10999c04 	addi	r2,r2,26224
 8003524:	2011883a 	mov	r8,r4
 8003528:	11000017 	ldw	r4,0(r2)
 800352c:	defffe04 	addi	sp,sp,-8
 8003530:	2807883a 	mov	r3,r5
 8003534:	3005883a 	mov	r2,r6
 8003538:	d9c00015 	stw	r7,0(sp)
 800353c:	400b883a 	mov	r5,r8
 8003540:	180d883a 	mov	r6,r3
 8003544:	100f883a 	mov	r7,r2
 8003548:	dfc00115 	stw	ra,4(sp)
 800354c:	800346c0 	call	800346c <_fwrite_r>
 8003550:	dfc00117 	ldw	ra,4(sp)
 8003554:	dec00204 	addi	sp,sp,8
 8003558:	f800283a 	ret

0800355c <__smakebuf_r>:
 800355c:	2880030b 	ldhu	r2,12(r5)
 8003560:	deffed04 	addi	sp,sp,-76
 8003564:	dc401015 	stw	r17,64(sp)
 8003568:	10c0008c 	andi	r3,r2,2
 800356c:	18ffffcc 	andi	r3,r3,65535
 8003570:	18e0001c 	xori	r3,r3,32768
 8003574:	dc000f15 	stw	r16,60(sp)
 8003578:	dfc01215 	stw	ra,72(sp)
 800357c:	dc801115 	stw	r18,68(sp)
 8003580:	18e00004 	addi	r3,r3,-32768
 8003584:	2821883a 	mov	r16,r5
 8003588:	2023883a 	mov	r17,r4
 800358c:	1800381e 	bne	r3,zero,8003670 <__smakebuf_r+0x114>
 8003590:	2940038f 	ldh	r5,14(r5)
 8003594:	28002d16 	blt	r5,zero,800364c <__smakebuf_r+0xf0>
 8003598:	d80d883a 	mov	r6,sp
 800359c:	80032a40 	call	80032a4 <_fstat_r>
 80035a0:	10002916 	blt	r2,zero,8003648 <__smakebuf_r+0xec>
 80035a4:	d8800117 	ldw	r2,4(sp)
 80035a8:	00e00014 	movui	r3,32768
 80035ac:	10bc000c 	andi	r2,r2,61440
 80035b0:	10c03c26 	beq	r2,r3,80036a4 <__smakebuf_r+0x148>
 80035b4:	80c0030b 	ldhu	r3,12(r16)
 80035b8:	18c20014 	ori	r3,r3,2048
 80035bc:	80c0030d 	sth	r3,12(r16)
 80035c0:	00c80004 	movi	r3,8192
 80035c4:	10c00c1e 	bne	r2,r3,80035f8 <__smakebuf_r+0x9c>
 80035c8:	8140038f 	ldh	r5,14(r16)
 80035cc:	8809883a 	mov	r4,r17
 80035d0:	8009e3c0 	call	8009e3c <_isatty_r>
 80035d4:	10000826 	beq	r2,zero,80035f8 <__smakebuf_r+0x9c>
 80035d8:	80c0030b 	ldhu	r3,12(r16)
 80035dc:	808010c4 	addi	r2,r16,67
 80035e0:	80800015 	stw	r2,0(r16)
 80035e4:	18c00054 	ori	r3,r3,1
 80035e8:	80800415 	stw	r2,16(r16)
 80035ec:	00800044 	movi	r2,1
 80035f0:	80c0030d 	sth	r3,12(r16)
 80035f4:	80800515 	stw	r2,20(r16)
 80035f8:	04810004 	movi	r18,1024
 80035fc:	8809883a 	mov	r4,r17
 8003600:	900b883a 	mov	r5,r18
 8003604:	800372c0 	call	800372c <_malloc_r>
 8003608:	10003026 	beq	r2,zero,80036cc <__smakebuf_r+0x170>
 800360c:	80c0030b 	ldhu	r3,12(r16)
 8003610:	01020034 	movhi	r4,2048
 8003614:	2108ad04 	addi	r4,r4,8884
 8003618:	89000f15 	stw	r4,60(r17)
 800361c:	18c02014 	ori	r3,r3,128
 8003620:	80c0030d 	sth	r3,12(r16)
 8003624:	80800015 	stw	r2,0(r16)
 8003628:	80800415 	stw	r2,16(r16)
 800362c:	84800515 	stw	r18,20(r16)
 8003630:	dfc01217 	ldw	ra,72(sp)
 8003634:	dc801117 	ldw	r18,68(sp)
 8003638:	dc401017 	ldw	r17,64(sp)
 800363c:	dc000f17 	ldw	r16,60(sp)
 8003640:	dec01304 	addi	sp,sp,76
 8003644:	f800283a 	ret
 8003648:	8080030b 	ldhu	r2,12(r16)
 800364c:	10c0200c 	andi	r3,r2,128
 8003650:	18ffffcc 	andi	r3,r3,65535
 8003654:	18e0001c 	xori	r3,r3,32768
 8003658:	18e00004 	addi	r3,r3,-32768
 800365c:	18000f1e 	bne	r3,zero,800369c <__smakebuf_r+0x140>
 8003660:	04810004 	movi	r18,1024
 8003664:	10820014 	ori	r2,r2,2048
 8003668:	8080030d 	sth	r2,12(r16)
 800366c:	003fe306 	br	80035fc <__smakebuf_r+0xa0>
 8003670:	288010c4 	addi	r2,r5,67
 8003674:	28800015 	stw	r2,0(r5)
 8003678:	28800415 	stw	r2,16(r5)
 800367c:	00800044 	movi	r2,1
 8003680:	28800515 	stw	r2,20(r5)
 8003684:	dfc01217 	ldw	ra,72(sp)
 8003688:	dc801117 	ldw	r18,68(sp)
 800368c:	dc401017 	ldw	r17,64(sp)
 8003690:	dc000f17 	ldw	r16,60(sp)
 8003694:	dec01304 	addi	sp,sp,76
 8003698:	f800283a 	ret
 800369c:	04801004 	movi	r18,64
 80036a0:	003ff006 	br	8003664 <__smakebuf_r+0x108>
 80036a4:	81000a17 	ldw	r4,40(r16)
 80036a8:	00c20034 	movhi	r3,2048
 80036ac:	18d16904 	addi	r3,r3,17828
 80036b0:	20ffc01e 	bne	r4,r3,80035b4 <__smakebuf_r+0x58>
 80036b4:	8080030b 	ldhu	r2,12(r16)
 80036b8:	00c10004 	movi	r3,1024
 80036bc:	80c01315 	stw	r3,76(r16)
 80036c0:	10c4b03a 	or	r2,r2,r3
 80036c4:	8080030d 	sth	r2,12(r16)
 80036c8:	003fcb06 	br	80035f8 <__smakebuf_r+0x9c>
 80036cc:	8080030b 	ldhu	r2,12(r16)
 80036d0:	10c0800c 	andi	r3,r2,512
 80036d4:	18ffffcc 	andi	r3,r3,65535
 80036d8:	18e0001c 	xori	r3,r3,32768
 80036dc:	18e00004 	addi	r3,r3,-32768
 80036e0:	183fd31e 	bne	r3,zero,8003630 <__smakebuf_r+0xd4>
 80036e4:	10800094 	ori	r2,r2,2
 80036e8:	80c010c4 	addi	r3,r16,67
 80036ec:	8080030d 	sth	r2,12(r16)
 80036f0:	00800044 	movi	r2,1
 80036f4:	80c00015 	stw	r3,0(r16)
 80036f8:	80c00415 	stw	r3,16(r16)
 80036fc:	80800515 	stw	r2,20(r16)
 8003700:	003fcb06 	br	8003630 <__smakebuf_r+0xd4>

08003704 <malloc>:
 8003704:	00820074 	movhi	r2,2049
 8003708:	10999c04 	addi	r2,r2,26224
 800370c:	200b883a 	mov	r5,r4
 8003710:	11000017 	ldw	r4,0(r2)
 8003714:	800372c1 	jmpi	800372c <_malloc_r>

08003718 <free>:
 8003718:	00820074 	movhi	r2,2049
 800371c:	10999c04 	addi	r2,r2,26224
 8003720:	200b883a 	mov	r5,r4
 8003724:	11000017 	ldw	r4,0(r2)
 8003728:	8002ae01 	jmpi	8002ae0 <_free_r>

0800372c <_malloc_r>:
 800372c:	defff604 	addi	sp,sp,-40
 8003730:	dc800215 	stw	r18,8(sp)
 8003734:	dfc00915 	stw	ra,36(sp)
 8003738:	df000815 	stw	fp,32(sp)
 800373c:	ddc00715 	stw	r23,28(sp)
 8003740:	dd800615 	stw	r22,24(sp)
 8003744:	dd400515 	stw	r21,20(sp)
 8003748:	dd000415 	stw	r20,16(sp)
 800374c:	dcc00315 	stw	r19,12(sp)
 8003750:	dc400115 	stw	r17,4(sp)
 8003754:	dc000015 	stw	r16,0(sp)
 8003758:	288002c4 	addi	r2,r5,11
 800375c:	00c00584 	movi	r3,22
 8003760:	2025883a 	mov	r18,r4
 8003764:	18802b2e 	bgeu	r3,r2,8003814 <_malloc_r+0xe8>
 8003768:	047ffe04 	movi	r17,-8
 800376c:	1462703a 	and	r17,r2,r17
 8003770:	88002a16 	blt	r17,zero,800381c <_malloc_r+0xf0>
 8003774:	89402936 	bltu	r17,r5,800381c <_malloc_r+0xf0>
 8003778:	9009883a 	mov	r4,r18
 800377c:	80115ac0 	call	80115ac <__malloc_lock>
 8003780:	00807dc4 	movi	r2,503
 8003784:	14402936 	bltu	r2,r17,800382c <_malloc_r+0x100>
 8003788:	8808d0fa 	srli	r4,r17,3
 800378c:	04c20074 	movhi	r19,2049
 8003790:	9cd40004 	addi	r19,r19,20480
 8003794:	2105883a 	add	r2,r4,r4
 8003798:	1085883a 	add	r2,r2,r2
 800379c:	1085883a 	add	r2,r2,r2
 80037a0:	9885883a 	add	r2,r19,r2
 80037a4:	14000317 	ldw	r16,12(r2)
 80037a8:	80815526 	beq	r16,r2,8003d00 <_malloc_r+0x5d4>
 80037ac:	81000117 	ldw	r4,4(r16)
 80037b0:	00bfff04 	movi	r2,-4
 80037b4:	80c00317 	ldw	r3,12(r16)
 80037b8:	2084703a 	and	r2,r4,r2
 80037bc:	8085883a 	add	r2,r16,r2
 80037c0:	11800117 	ldw	r6,4(r2)
 80037c4:	81400217 	ldw	r5,8(r16)
 80037c8:	9009883a 	mov	r4,r18
 80037cc:	31800054 	ori	r6,r6,1
 80037d0:	11800115 	stw	r6,4(r2)
 80037d4:	28c00315 	stw	r3,12(r5)
 80037d8:	19400215 	stw	r5,8(r3)
 80037dc:	80115cc0 	call	80115cc <__malloc_unlock>
 80037e0:	80800204 	addi	r2,r16,8
 80037e4:	dfc00917 	ldw	ra,36(sp)
 80037e8:	df000817 	ldw	fp,32(sp)
 80037ec:	ddc00717 	ldw	r23,28(sp)
 80037f0:	dd800617 	ldw	r22,24(sp)
 80037f4:	dd400517 	ldw	r21,20(sp)
 80037f8:	dd000417 	ldw	r20,16(sp)
 80037fc:	dcc00317 	ldw	r19,12(sp)
 8003800:	dc800217 	ldw	r18,8(sp)
 8003804:	dc400117 	ldw	r17,4(sp)
 8003808:	dc000017 	ldw	r16,0(sp)
 800380c:	dec00a04 	addi	sp,sp,40
 8003810:	f800283a 	ret
 8003814:	04400404 	movi	r17,16
 8003818:	897fd72e 	bgeu	r17,r5,8003778 <_malloc_r+0x4c>
 800381c:	00800304 	movi	r2,12
 8003820:	90800015 	stw	r2,0(r18)
 8003824:	0005883a 	mov	r2,zero
 8003828:	003fee06 	br	80037e4 <_malloc_r+0xb8>
 800382c:	8808d27a 	srli	r4,r17,9
 8003830:	20007126 	beq	r4,zero,80039f8 <_malloc_r+0x2cc>
 8003834:	00800104 	movi	r2,4
 8003838:	1100eb36 	bltu	r2,r4,8003be8 <_malloc_r+0x4bc>
 800383c:	8808d1ba 	srli	r4,r17,6
 8003840:	21000e04 	addi	r4,r4,56
 8003844:	210b883a 	add	r5,r4,r4
 8003848:	294b883a 	add	r5,r5,r5
 800384c:	294b883a 	add	r5,r5,r5
 8003850:	04c20074 	movhi	r19,2049
 8003854:	9cd40004 	addi	r19,r19,20480
 8003858:	994b883a 	add	r5,r19,r5
 800385c:	2c000317 	ldw	r16,12(r5)
 8003860:	2c000e26 	beq	r5,r16,800389c <_malloc_r+0x170>
 8003864:	80c00117 	ldw	r3,4(r16)
 8003868:	01ffff04 	movi	r7,-4
 800386c:	018003c4 	movi	r6,15
 8003870:	19c6703a 	and	r3,r3,r7
 8003874:	1c45c83a 	sub	r2,r3,r17
 8003878:	30800716 	blt	r6,r2,8003898 <_malloc_r+0x16c>
 800387c:	1000610e 	bge	r2,zero,8003a04 <_malloc_r+0x2d8>
 8003880:	84000317 	ldw	r16,12(r16)
 8003884:	2c000526 	beq	r5,r16,800389c <_malloc_r+0x170>
 8003888:	80c00117 	ldw	r3,4(r16)
 800388c:	19c6703a 	and	r3,r3,r7
 8003890:	1c45c83a 	sub	r2,r3,r17
 8003894:	30bff90e 	bge	r6,r2,800387c <_malloc_r+0x150>
 8003898:	213fffc4 	addi	r4,r4,-1
 800389c:	21000044 	addi	r4,r4,1
 80038a0:	9c000417 	ldw	r16,16(r19)
 80038a4:	00c20074 	movhi	r3,2049
 80038a8:	18d40004 	addi	r3,r3,20480
 80038ac:	1a400204 	addi	r9,r3,8
 80038b0:	8240ff26 	beq	r16,r9,8003cb0 <_malloc_r+0x584>
 80038b4:	81400117 	ldw	r5,4(r16)
 80038b8:	00bfff04 	movi	r2,-4
 80038bc:	018003c4 	movi	r6,15
 80038c0:	2884703a 	and	r2,r5,r2
 80038c4:	144bc83a 	sub	r5,r2,r17
 80038c8:	3140ea16 	blt	r6,r5,8003c74 <_malloc_r+0x548>
 80038cc:	1a400515 	stw	r9,20(r3)
 80038d0:	1a400415 	stw	r9,16(r3)
 80038d4:	2800570e 	bge	r5,zero,8003a34 <_malloc_r+0x308>
 80038d8:	01407fc4 	movi	r5,511
 80038dc:	2880ca36 	bltu	r5,r2,8003c08 <_malloc_r+0x4dc>
 80038e0:	1004d0fa 	srli	r2,r2,3
 80038e4:	02000044 	movi	r8,1
 80038e8:	19c00117 	ldw	r7,4(r3)
 80038ec:	108b883a 	add	r5,r2,r2
 80038f0:	294b883a 	add	r5,r5,r5
 80038f4:	1005d0ba 	srai	r2,r2,2
 80038f8:	294b883a 	add	r5,r5,r5
 80038fc:	28cb883a 	add	r5,r5,r3
 8003900:	29800217 	ldw	r6,8(r5)
 8003904:	4084983a 	sll	r2,r8,r2
 8003908:	81400315 	stw	r5,12(r16)
 800390c:	81800215 	stw	r6,8(r16)
 8003910:	11c4b03a 	or	r2,r2,r7
 8003914:	18800115 	stw	r2,4(r3)
 8003918:	2c000215 	stw	r16,8(r5)
 800391c:	34000315 	stw	r16,12(r6)
 8003920:	200bd0ba 	srai	r5,r4,2
 8003924:	00c00044 	movi	r3,1
 8003928:	194a983a 	sll	r5,r3,r5
 800392c:	11404936 	bltu	r2,r5,8003a54 <_malloc_r+0x328>
 8003930:	1146703a 	and	r3,r2,r5
 8003934:	18000a1e 	bne	r3,zero,8003960 <_malloc_r+0x234>
 8003938:	00ffff04 	movi	r3,-4
 800393c:	294b883a 	add	r5,r5,r5
 8003940:	20c8703a 	and	r4,r4,r3
 8003944:	1146703a 	and	r3,r2,r5
 8003948:	21000104 	addi	r4,r4,4
 800394c:	1800041e 	bne	r3,zero,8003960 <_malloc_r+0x234>
 8003950:	294b883a 	add	r5,r5,r5
 8003954:	1146703a 	and	r3,r2,r5
 8003958:	21000104 	addi	r4,r4,4
 800395c:	183ffc26 	beq	r3,zero,8003950 <_malloc_r+0x224>
 8003960:	023fff04 	movi	r8,-4
 8003964:	01c003c4 	movi	r7,15
 8003968:	2105883a 	add	r2,r4,r4
 800396c:	1085883a 	add	r2,r2,r2
 8003970:	1085883a 	add	r2,r2,r2
 8003974:	9899883a 	add	r12,r19,r2
 8003978:	62800304 	addi	r10,r12,12
 800397c:	2017883a 	mov	r11,r4
 8003980:	54000017 	ldw	r16,0(r10)
 8003984:	51bffd04 	addi	r6,r10,-12
 8003988:	8180041e 	bne	r16,r6,800399c <_malloc_r+0x270>
 800398c:	0000ca06 	br	8003cb8 <_malloc_r+0x58c>
 8003990:	10001c0e 	bge	r2,zero,8003a04 <_malloc_r+0x2d8>
 8003994:	84000317 	ldw	r16,12(r16)
 8003998:	8180c726 	beq	r16,r6,8003cb8 <_malloc_r+0x58c>
 800399c:	80c00117 	ldw	r3,4(r16)
 80039a0:	1a06703a 	and	r3,r3,r8
 80039a4:	1c45c83a 	sub	r2,r3,r17
 80039a8:	38bff90e 	bge	r7,r2,8003990 <_malloc_r+0x264>
 80039ac:	81000317 	ldw	r4,12(r16)
 80039b0:	81400217 	ldw	r5,8(r16)
 80039b4:	8447883a 	add	r3,r16,r17
 80039b8:	8c400054 	ori	r17,r17,1
 80039bc:	29000315 	stw	r4,12(r5)
 80039c0:	21400215 	stw	r5,8(r4)
 80039c4:	84400115 	stw	r17,4(r16)
 80039c8:	1889883a 	add	r4,r3,r2
 80039cc:	11400054 	ori	r5,r2,1
 80039d0:	98c00515 	stw	r3,20(r19)
 80039d4:	98c00415 	stw	r3,16(r19)
 80039d8:	20800015 	stw	r2,0(r4)
 80039dc:	1a400315 	stw	r9,12(r3)
 80039e0:	1a400215 	stw	r9,8(r3)
 80039e4:	19400115 	stw	r5,4(r3)
 80039e8:	9009883a 	mov	r4,r18
 80039ec:	80115cc0 	call	80115cc <__malloc_unlock>
 80039f0:	80800204 	addi	r2,r16,8
 80039f4:	003f7b06 	br	80037e4 <_malloc_r+0xb8>
 80039f8:	8808d0fa 	srli	r4,r17,3
 80039fc:	210b883a 	add	r5,r4,r4
 8003a00:	003f9106 	br	8003848 <_malloc_r+0x11c>
 8003a04:	80c7883a 	add	r3,r16,r3
 8003a08:	19400117 	ldw	r5,4(r3)
 8003a0c:	80800317 	ldw	r2,12(r16)
 8003a10:	81000217 	ldw	r4,8(r16)
 8003a14:	29400054 	ori	r5,r5,1
 8003a18:	19400115 	stw	r5,4(r3)
 8003a1c:	20800315 	stw	r2,12(r4)
 8003a20:	11000215 	stw	r4,8(r2)
 8003a24:	9009883a 	mov	r4,r18
 8003a28:	80115cc0 	call	80115cc <__malloc_unlock>
 8003a2c:	80800204 	addi	r2,r16,8
 8003a30:	003f6c06 	br	80037e4 <_malloc_r+0xb8>
 8003a34:	8085883a 	add	r2,r16,r2
 8003a38:	10c00117 	ldw	r3,4(r2)
 8003a3c:	9009883a 	mov	r4,r18
 8003a40:	18c00054 	ori	r3,r3,1
 8003a44:	10c00115 	stw	r3,4(r2)
 8003a48:	80115cc0 	call	80115cc <__malloc_unlock>
 8003a4c:	80800204 	addi	r2,r16,8
 8003a50:	003f6406 	br	80037e4 <_malloc_r+0xb8>
 8003a54:	9c000217 	ldw	r16,8(r19)
 8003a58:	00bfff04 	movi	r2,-4
 8003a5c:	85400117 	ldw	r21,4(r16)
 8003a60:	a8aa703a 	and	r21,r21,r2
 8003a64:	ac400336 	bltu	r21,r17,8003a74 <_malloc_r+0x348>
 8003a68:	ac45c83a 	sub	r2,r21,r17
 8003a6c:	00c003c4 	movi	r3,15
 8003a70:	18805316 	blt	r3,r2,8003bc0 <_malloc_r+0x494>
 8003a74:	d5e6e217 	ldw	r23,-25720(gp)
 8003a78:	d0e00217 	ldw	r3,-32760(gp)
 8003a7c:	00bfffc4 	movi	r2,-1
 8003a80:	8579883a 	add	fp,r16,r21
 8003a84:	8def883a 	add	r23,r17,r23
 8003a88:	1880d226 	beq	r3,r2,8003dd4 <_malloc_r+0x6a8>
 8003a8c:	bdc403c4 	addi	r23,r23,4111
 8003a90:	00bc0004 	movi	r2,-4096
 8003a94:	b8ae703a 	and	r23,r23,r2
 8003a98:	9009883a 	mov	r4,r18
 8003a9c:	b80b883a 	mov	r5,r23
 8003aa0:	80044640 	call	8004464 <_sbrk_r>
 8003aa4:	1029883a 	mov	r20,r2
 8003aa8:	00bfffc4 	movi	r2,-1
 8003aac:	a080d126 	beq	r20,r2,8003df4 <_malloc_r+0x6c8>
 8003ab0:	a7009f36 	bltu	r20,fp,8003d30 <_malloc_r+0x604>
 8003ab4:	058200b4 	movhi	r22,2050
 8003ab8:	b5a08704 	addi	r22,r22,-32228
 8003abc:	b0800017 	ldw	r2,0(r22)
 8003ac0:	b885883a 	add	r2,r23,r2
 8003ac4:	b0800015 	stw	r2,0(r22)
 8003ac8:	e500cf26 	beq	fp,r20,8003e08 <_malloc_r+0x6dc>
 8003acc:	d1200217 	ldw	r4,-32760(gp)
 8003ad0:	00ffffc4 	movi	r3,-1
 8003ad4:	20c0e026 	beq	r4,r3,8003e58 <_malloc_r+0x72c>
 8003ad8:	a739c83a 	sub	fp,r20,fp
 8003adc:	1705883a 	add	r2,r2,fp
 8003ae0:	b0800015 	stw	r2,0(r22)
 8003ae4:	a08001cc 	andi	r2,r20,7
 8003ae8:	1000a526 	beq	r2,zero,8003d80 <_malloc_r+0x654>
 8003aec:	a0a9c83a 	sub	r20,r20,r2
 8003af0:	00c40204 	movi	r3,4104
 8003af4:	a5000204 	addi	r20,r20,8
 8003af8:	1885c83a 	sub	r2,r3,r2
 8003afc:	a5c7883a 	add	r3,r20,r23
 8003b00:	18c3ffcc 	andi	r3,r3,4095
 8003b04:	10efc83a 	sub	r23,r2,r3
 8003b08:	9009883a 	mov	r4,r18
 8003b0c:	b80b883a 	mov	r5,r23
 8003b10:	80044640 	call	8004464 <_sbrk_r>
 8003b14:	00ffffc4 	movi	r3,-1
 8003b18:	10c0cc26 	beq	r2,r3,8003e4c <_malloc_r+0x720>
 8003b1c:	1505c83a 	sub	r2,r2,r20
 8003b20:	b887883a 	add	r3,r23,r2
 8003b24:	18c00054 	ori	r3,r3,1
 8003b28:	b0800017 	ldw	r2,0(r22)
 8003b2c:	9d000215 	stw	r20,8(r19)
 8003b30:	a0c00115 	stw	r3,4(r20)
 8003b34:	b885883a 	add	r2,r23,r2
 8003b38:	b0800015 	stw	r2,0(r22)
 8003b3c:	84c00e26 	beq	r16,r19,8003b78 <_malloc_r+0x44c>
 8003b40:	00c003c4 	movi	r3,15
 8003b44:	1d40902e 	bgeu	r3,r21,8003d88 <_malloc_r+0x65c>
 8003b48:	ad7ffd04 	addi	r21,r21,-12
 8003b4c:	013ffe04 	movi	r4,-8
 8003b50:	a908703a 	and	r4,r21,r4
 8003b54:	810b883a 	add	r5,r16,r4
 8003b58:	01800144 	movi	r6,5
 8003b5c:	29800115 	stw	r6,4(r5)
 8003b60:	29800215 	stw	r6,8(r5)
 8003b64:	81400117 	ldw	r5,4(r16)
 8003b68:	2940004c 	andi	r5,r5,1
 8003b6c:	214ab03a 	or	r5,r4,r5
 8003b70:	81400115 	stw	r5,4(r16)
 8003b74:	1900ae36 	bltu	r3,r4,8003e30 <_malloc_r+0x704>
 8003b78:	d0e6e117 	ldw	r3,-25724(gp)
 8003b7c:	1880012e 	bgeu	r3,r2,8003b84 <_malloc_r+0x458>
 8003b80:	d0a6e115 	stw	r2,-25724(gp)
 8003b84:	d0e6e017 	ldw	r3,-25728(gp)
 8003b88:	9c000217 	ldw	r16,8(r19)
 8003b8c:	1880012e 	bgeu	r3,r2,8003b94 <_malloc_r+0x468>
 8003b90:	d0a6e015 	stw	r2,-25728(gp)
 8003b94:	80c00117 	ldw	r3,4(r16)
 8003b98:	00bfff04 	movi	r2,-4
 8003b9c:	1886703a 	and	r3,r3,r2
 8003ba0:	1c45c83a 	sub	r2,r3,r17
 8003ba4:	1c400236 	bltu	r3,r17,8003bb0 <_malloc_r+0x484>
 8003ba8:	00c003c4 	movi	r3,15
 8003bac:	18800416 	blt	r3,r2,8003bc0 <_malloc_r+0x494>
 8003bb0:	9009883a 	mov	r4,r18
 8003bb4:	80115cc0 	call	80115cc <__malloc_unlock>
 8003bb8:	0005883a 	mov	r2,zero
 8003bbc:	003f0906 	br	80037e4 <_malloc_r+0xb8>
 8003bc0:	88c00054 	ori	r3,r17,1
 8003bc4:	10800054 	ori	r2,r2,1
 8003bc8:	80c00115 	stw	r3,4(r16)
 8003bcc:	8463883a 	add	r17,r16,r17
 8003bd0:	88800115 	stw	r2,4(r17)
 8003bd4:	9009883a 	mov	r4,r18
 8003bd8:	9c400215 	stw	r17,8(r19)
 8003bdc:	80115cc0 	call	80115cc <__malloc_unlock>
 8003be0:	80800204 	addi	r2,r16,8
 8003be4:	003eff06 	br	80037e4 <_malloc_r+0xb8>
 8003be8:	00800504 	movi	r2,20
 8003bec:	1100492e 	bgeu	r2,r4,8003d14 <_malloc_r+0x5e8>
 8003bf0:	00801504 	movi	r2,84
 8003bf4:	11005c36 	bltu	r2,r4,8003d68 <_malloc_r+0x63c>
 8003bf8:	8808d33a 	srli	r4,r17,12
 8003bfc:	21001b84 	addi	r4,r4,110
 8003c00:	210b883a 	add	r5,r4,r4
 8003c04:	003f1006 	br	8003848 <_malloc_r+0x11c>
 8003c08:	1006d27a 	srli	r3,r2,9
 8003c0c:	01400104 	movi	r5,4
 8003c10:	28c0432e 	bgeu	r5,r3,8003d20 <_malloc_r+0x5f4>
 8003c14:	01400504 	movi	r5,20
 8003c18:	28c07036 	bltu	r5,r3,8003ddc <_malloc_r+0x6b0>
 8003c1c:	194016c4 	addi	r5,r3,91
 8003c20:	294d883a 	add	r6,r5,r5
 8003c24:	318d883a 	add	r6,r6,r6
 8003c28:	318d883a 	add	r6,r6,r6
 8003c2c:	998d883a 	add	r6,r19,r6
 8003c30:	30c00217 	ldw	r3,8(r6)
 8003c34:	01c20074 	movhi	r7,2049
 8003c38:	39d40004 	addi	r7,r7,20480
 8003c3c:	19805726 	beq	r3,r6,8003d9c <_malloc_r+0x670>
 8003c40:	01ffff04 	movi	r7,-4
 8003c44:	19400117 	ldw	r5,4(r3)
 8003c48:	29ca703a 	and	r5,r5,r7
 8003c4c:	1140022e 	bgeu	r2,r5,8003c58 <_malloc_r+0x52c>
 8003c50:	18c00217 	ldw	r3,8(r3)
 8003c54:	30fffb1e 	bne	r6,r3,8003c44 <_malloc_r+0x518>
 8003c58:	19400317 	ldw	r5,12(r3)
 8003c5c:	98800117 	ldw	r2,4(r19)
 8003c60:	81400315 	stw	r5,12(r16)
 8003c64:	80c00215 	stw	r3,8(r16)
 8003c68:	2c000215 	stw	r16,8(r5)
 8003c6c:	1c000315 	stw	r16,12(r3)
 8003c70:	003f2b06 	br	8003920 <_malloc_r+0x1f4>
 8003c74:	8445883a 	add	r2,r16,r17
 8003c78:	8c400054 	ori	r17,r17,1
 8003c7c:	18800515 	stw	r2,20(r3)
 8003c80:	18800415 	stw	r2,16(r3)
 8003c84:	29000054 	ori	r4,r5,1
 8003c88:	1147883a 	add	r3,r2,r5
 8003c8c:	84400115 	stw	r17,4(r16)
 8003c90:	11000115 	stw	r4,4(r2)
 8003c94:	12400315 	stw	r9,12(r2)
 8003c98:	12400215 	stw	r9,8(r2)
 8003c9c:	19400015 	stw	r5,0(r3)
 8003ca0:	9009883a 	mov	r4,r18
 8003ca4:	80115cc0 	call	80115cc <__malloc_unlock>
 8003ca8:	80800204 	addi	r2,r16,8
 8003cac:	003ecd06 	br	80037e4 <_malloc_r+0xb8>
 8003cb0:	18800117 	ldw	r2,4(r3)
 8003cb4:	003f1a06 	br	8003920 <_malloc_r+0x1f4>
 8003cb8:	5ac00044 	addi	r11,r11,1
 8003cbc:	588000cc 	andi	r2,r11,3
 8003cc0:	52800204 	addi	r10,r10,8
 8003cc4:	103f2e1e 	bne	r2,zero,8003980 <_malloc_r+0x254>
 8003cc8:	20c000cc 	andi	r3,r4,3
 8003ccc:	60bffe04 	addi	r2,r12,-8
 8003cd0:	18006f26 	beq	r3,zero,8003e90 <_malloc_r+0x764>
 8003cd4:	63000017 	ldw	r12,0(r12)
 8003cd8:	213fffc4 	addi	r4,r4,-1
 8003cdc:	60bffa26 	beq	r12,r2,8003cc8 <_malloc_r+0x59c>
 8003ce0:	98800117 	ldw	r2,4(r19)
 8003ce4:	294b883a 	add	r5,r5,r5
 8003ce8:	117f5a36 	bltu	r2,r5,8003a54 <_malloc_r+0x328>
 8003cec:	283f5926 	beq	r5,zero,8003a54 <_malloc_r+0x328>
 8003cf0:	1146703a 	and	r3,r2,r5
 8003cf4:	18001626 	beq	r3,zero,8003d50 <_malloc_r+0x624>
 8003cf8:	5809883a 	mov	r4,r11
 8003cfc:	003f1a06 	br	8003968 <_malloc_r+0x23c>
 8003d00:	80800204 	addi	r2,r16,8
 8003d04:	84000517 	ldw	r16,20(r16)
 8003d08:	143ea81e 	bne	r2,r16,80037ac <_malloc_r+0x80>
 8003d0c:	21000084 	addi	r4,r4,2
 8003d10:	003ee306 	br	80038a0 <_malloc_r+0x174>
 8003d14:	210016c4 	addi	r4,r4,91
 8003d18:	210b883a 	add	r5,r4,r4
 8003d1c:	003eca06 	br	8003848 <_malloc_r+0x11c>
 8003d20:	100ad1ba 	srli	r5,r2,6
 8003d24:	29400e04 	addi	r5,r5,56
 8003d28:	294d883a 	add	r6,r5,r5
 8003d2c:	003fbd06 	br	8003c24 <_malloc_r+0x4f8>
 8003d30:	84ff6026 	beq	r16,r19,8003ab4 <_malloc_r+0x388>
 8003d34:	00820074 	movhi	r2,2049
 8003d38:	10940004 	addi	r2,r2,20480
 8003d3c:	14000217 	ldw	r16,8(r2)
 8003d40:	00bfff04 	movi	r2,-4
 8003d44:	80c00117 	ldw	r3,4(r16)
 8003d48:	1886703a 	and	r3,r3,r2
 8003d4c:	003f9406 	br	8003ba0 <_malloc_r+0x474>
 8003d50:	294b883a 	add	r5,r5,r5
 8003d54:	1146703a 	and	r3,r2,r5
 8003d58:	5ac00104 	addi	r11,r11,4
 8003d5c:	183ffc26 	beq	r3,zero,8003d50 <_malloc_r+0x624>
 8003d60:	5809883a 	mov	r4,r11
 8003d64:	003f0006 	br	8003968 <_malloc_r+0x23c>
 8003d68:	00805504 	movi	r2,340
 8003d6c:	11001336 	bltu	r2,r4,8003dbc <_malloc_r+0x690>
 8003d70:	8808d3fa 	srli	r4,r17,15
 8003d74:	21001dc4 	addi	r4,r4,119
 8003d78:	210b883a 	add	r5,r4,r4
 8003d7c:	003eb206 	br	8003848 <_malloc_r+0x11c>
 8003d80:	00840004 	movi	r2,4096
 8003d84:	003f5d06 	br	8003afc <_malloc_r+0x3d0>
 8003d88:	00800044 	movi	r2,1
 8003d8c:	a0800115 	stw	r2,4(r20)
 8003d90:	a021883a 	mov	r16,r20
 8003d94:	0007883a 	mov	r3,zero
 8003d98:	003f8106 	br	8003ba0 <_malloc_r+0x474>
 8003d9c:	280bd0ba 	srai	r5,r5,2
 8003da0:	01800044 	movi	r6,1
 8003da4:	38800117 	ldw	r2,4(r7)
 8003da8:	314c983a 	sll	r6,r6,r5
 8003dac:	180b883a 	mov	r5,r3
 8003db0:	3084b03a 	or	r2,r6,r2
 8003db4:	38800115 	stw	r2,4(r7)
 8003db8:	003fa906 	br	8003c60 <_malloc_r+0x534>
 8003dbc:	00815504 	movi	r2,1364
 8003dc0:	11001836 	bltu	r2,r4,8003e24 <_malloc_r+0x6f8>
 8003dc4:	8808d4ba 	srli	r4,r17,18
 8003dc8:	21001f04 	addi	r4,r4,124
 8003dcc:	210b883a 	add	r5,r4,r4
 8003dd0:	003e9d06 	br	8003848 <_malloc_r+0x11c>
 8003dd4:	bdc00404 	addi	r23,r23,16
 8003dd8:	003f2f06 	br	8003a98 <_malloc_r+0x36c>
 8003ddc:	01401504 	movi	r5,84
 8003de0:	28c01f36 	bltu	r5,r3,8003e60 <_malloc_r+0x734>
 8003de4:	100ad33a 	srli	r5,r2,12
 8003de8:	29401b84 	addi	r5,r5,110
 8003dec:	294d883a 	add	r6,r5,r5
 8003df0:	003f8c06 	br	8003c24 <_malloc_r+0x4f8>
 8003df4:	9c000217 	ldw	r16,8(r19)
 8003df8:	00bfff04 	movi	r2,-4
 8003dfc:	80c00117 	ldw	r3,4(r16)
 8003e00:	1886703a 	and	r3,r3,r2
 8003e04:	003f6606 	br	8003ba0 <_malloc_r+0x474>
 8003e08:	e0c3ffcc 	andi	r3,fp,4095
 8003e0c:	183f2f1e 	bne	r3,zero,8003acc <_malloc_r+0x3a0>
 8003e10:	98c00217 	ldw	r3,8(r19)
 8003e14:	bd49883a 	add	r4,r23,r21
 8003e18:	21000054 	ori	r4,r4,1
 8003e1c:	19000115 	stw	r4,4(r3)
 8003e20:	003f5506 	br	8003b78 <_malloc_r+0x44c>
 8003e24:	01403f04 	movi	r5,252
 8003e28:	01001f84 	movi	r4,126
 8003e2c:	003e8606 	br	8003848 <_malloc_r+0x11c>
 8003e30:	9009883a 	mov	r4,r18
 8003e34:	81400204 	addi	r5,r16,8
 8003e38:	8002ae00 	call	8002ae0 <_free_r>
 8003e3c:	008200b4 	movhi	r2,2050
 8003e40:	10a08704 	addi	r2,r2,-32228
 8003e44:	10800017 	ldw	r2,0(r2)
 8003e48:	003f4b06 	br	8003b78 <_malloc_r+0x44c>
 8003e4c:	00c00044 	movi	r3,1
 8003e50:	002f883a 	mov	r23,zero
 8003e54:	003f3406 	br	8003b28 <_malloc_r+0x3fc>
 8003e58:	d5200215 	stw	r20,-32760(gp)
 8003e5c:	003f2106 	br	8003ae4 <_malloc_r+0x3b8>
 8003e60:	01405504 	movi	r5,340
 8003e64:	28c00436 	bltu	r5,r3,8003e78 <_malloc_r+0x74c>
 8003e68:	100ad3fa 	srli	r5,r2,15
 8003e6c:	29401dc4 	addi	r5,r5,119
 8003e70:	294d883a 	add	r6,r5,r5
 8003e74:	003f6b06 	br	8003c24 <_malloc_r+0x4f8>
 8003e78:	01415504 	movi	r5,1364
 8003e7c:	28c00936 	bltu	r5,r3,8003ea4 <_malloc_r+0x778>
 8003e80:	100ad4ba 	srli	r5,r2,18
 8003e84:	29401f04 	addi	r5,r5,124
 8003e88:	294d883a 	add	r6,r5,r5
 8003e8c:	003f6506 	br	8003c24 <_malloc_r+0x4f8>
 8003e90:	98800117 	ldw	r2,4(r19)
 8003e94:	0146303a 	nor	r3,zero,r5
 8003e98:	1884703a 	and	r2,r3,r2
 8003e9c:	98800115 	stw	r2,4(r19)
 8003ea0:	003f9006 	br	8003ce4 <_malloc_r+0x5b8>
 8003ea4:	01803f04 	movi	r6,252
 8003ea8:	01401f84 	movi	r5,126
 8003eac:	003f5d06 	br	8003c24 <_malloc_r+0x4f8>

08003eb0 <memcpy>:
 8003eb0:	defffb04 	addi	sp,sp,-20
 8003eb4:	dc000015 	stw	r16,0(sp)
 8003eb8:	dfc00415 	stw	ra,16(sp)
 8003ebc:	dcc00315 	stw	r19,12(sp)
 8003ec0:	dc800215 	stw	r18,8(sp)
 8003ec4:	dc400115 	stw	r17,4(sp)
 8003ec8:	00c003c4 	movi	r3,15
 8003ecc:	2021883a 	mov	r16,r4
 8003ed0:	3005883a 	mov	r2,r6
 8003ed4:	1980032e 	bgeu	r3,r6,8003ee4 <memcpy+0x34>
 8003ed8:	2906b03a 	or	r3,r5,r4
 8003edc:	18c000cc 	andi	r3,r3,3
 8003ee0:	18001026 	beq	r3,zero,8003f24 <memcpy+0x74>
 8003ee4:	8007883a 	mov	r3,r16
 8003ee8:	288f883a 	add	r7,r5,r2
 8003eec:	10000526 	beq	r2,zero,8003f04 <memcpy+0x54>
 8003ef0:	29800003 	ldbu	r6,0(r5)
 8003ef4:	18c00044 	addi	r3,r3,1
 8003ef8:	29400044 	addi	r5,r5,1
 8003efc:	19bfffc5 	stb	r6,-1(r3)
 8003f00:	29fffb1e 	bne	r5,r7,8003ef0 <memcpy+0x40>
 8003f04:	8005883a 	mov	r2,r16
 8003f08:	dfc00417 	ldw	ra,16(sp)
 8003f0c:	dcc00317 	ldw	r19,12(sp)
 8003f10:	dc800217 	ldw	r18,8(sp)
 8003f14:	dc400117 	ldw	r17,4(sp)
 8003f18:	dc000017 	ldw	r16,0(sp)
 8003f1c:	dec00504 	addi	sp,sp,20
 8003f20:	f800283a 	ret
 8003f24:	32bffc04 	addi	r10,r6,-16
 8003f28:	5014d13a 	srli	r10,r10,4
 8003f2c:	20800404 	addi	r2,r4,16
 8003f30:	2007883a 	mov	r3,r4
 8003f34:	5008913a 	slli	r4,r10,4
 8003f38:	280f883a 	mov	r7,r5
 8003f3c:	1105883a 	add	r2,r2,r4
 8003f40:	3a000017 	ldw	r8,0(r7)
 8003f44:	18c00404 	addi	r3,r3,16
 8003f48:	39c00404 	addi	r7,r7,16
 8003f4c:	1a3ffc15 	stw	r8,-16(r3)
 8003f50:	3a3ffd17 	ldw	r8,-12(r7)
 8003f54:	1a3ffd15 	stw	r8,-12(r3)
 8003f58:	3a3ffe17 	ldw	r8,-8(r7)
 8003f5c:	1a3ffe15 	stw	r8,-8(r3)
 8003f60:	3a3fff17 	ldw	r8,-4(r7)
 8003f64:	1a3fff15 	stw	r8,-4(r3)
 8003f68:	18bff51e 	bne	r3,r2,8003f40 <memcpy+0x90>
 8003f6c:	52800044 	addi	r10,r10,1
 8003f70:	5014913a 	slli	r10,r10,4
 8003f74:	308003cc 	andi	r2,r6,15
 8003f78:	010000c4 	movi	r4,3
 8003f7c:	8287883a 	add	r3,r16,r10
 8003f80:	2a95883a 	add	r10,r5,r10
 8003f84:	2080182e 	bgeu	r4,r2,8003fe8 <memcpy+0x138>
 8003f88:	147fff04 	addi	r17,r2,-4
 8003f8c:	8808d0ba 	srli	r4,r17,2
 8003f90:	1a400104 	addi	r9,r3,4
 8003f94:	180d883a 	mov	r6,r3
 8003f98:	2105883a 	add	r2,r4,r4
 8003f9c:	1085883a 	add	r2,r2,r2
 8003fa0:	4893883a 	add	r9,r9,r2
 8003fa4:	500f883a 	mov	r7,r10
 8003fa8:	3a000017 	ldw	r8,0(r7)
 8003fac:	31800104 	addi	r6,r6,4
 8003fb0:	39c00104 	addi	r7,r7,4
 8003fb4:	323fff15 	stw	r8,-4(r6)
 8003fb8:	327ffb1e 	bne	r6,r9,8003fa8 <memcpy+0xf8>
 8003fbc:	20800044 	addi	r2,r4,1
 8003fc0:	1085883a 	add	r2,r2,r2
 8003fc4:	1085883a 	add	r2,r2,r2
 8003fc8:	017fff04 	movi	r5,-4
 8003fcc:	18a5883a 	add	r18,r3,r2
 8003fd0:	50a7883a 	add	r19,r10,r2
 8003fd4:	8001a6c0 	call	8001a6c <__mulsi3>
 8003fd8:	1445883a 	add	r2,r2,r17
 8003fdc:	980b883a 	mov	r5,r19
 8003fe0:	9007883a 	mov	r3,r18
 8003fe4:	003fc006 	br	8003ee8 <memcpy+0x38>
 8003fe8:	500b883a 	mov	r5,r10
 8003fec:	003fbe06 	br	8003ee8 <memcpy+0x38>

08003ff0 <memset>:
 8003ff0:	00c000c4 	movi	r3,3
 8003ff4:	2005883a 	mov	r2,r4
 8003ff8:	29403fcc 	andi	r5,r5,255
 8003ffc:	19802d2e 	bgeu	r3,r6,80040b4 <memset+0xc4>
 8004000:	20c6703a 	and	r3,r4,r3
 8004004:	18002e1e 	bne	r3,zero,80040c0 <memset+0xd0>
 8004008:	2806923a 	slli	r3,r5,8
 800400c:	010003c4 	movi	r4,15
 8004010:	3011883a 	mov	r8,r6
 8004014:	1946b03a 	or	r3,r3,r5
 8004018:	180e943a 	slli	r7,r3,16
 800401c:	38ceb03a 	or	r7,r7,r3
 8004020:	1007883a 	mov	r3,r2
 8004024:	21800f2e 	bgeu	r4,r6,8004064 <memset+0x74>
 8004028:	19c00015 	stw	r7,0(r3)
 800402c:	19c00115 	stw	r7,4(r3)
 8004030:	19c00215 	stw	r7,8(r3)
 8004034:	19c00315 	stw	r7,12(r3)
 8004038:	423ffc04 	addi	r8,r8,-16
 800403c:	18c00404 	addi	r3,r3,16
 8004040:	223ff936 	bltu	r4,r8,8004028 <memset+0x38>
 8004044:	30fffc04 	addi	r3,r6,-16
 8004048:	1806d13a 	srli	r3,r3,4
 800404c:	318003cc 	andi	r6,r6,15
 8004050:	010000c4 	movi	r4,3
 8004054:	18c00044 	addi	r3,r3,1
 8004058:	1806913a 	slli	r3,r3,4
 800405c:	10c7883a 	add	r3,r2,r3
 8004060:	21800e2e 	bgeu	r4,r6,800409c <memset+0xac>
 8004064:	1813883a 	mov	r9,r3
 8004068:	3011883a 	mov	r8,r6
 800406c:	010000c4 	movi	r4,3
 8004070:	49c00015 	stw	r7,0(r9)
 8004074:	423fff04 	addi	r8,r8,-4
 8004078:	4a400104 	addi	r9,r9,4
 800407c:	223ffc36 	bltu	r4,r8,8004070 <memset+0x80>
 8004080:	313fff04 	addi	r4,r6,-4
 8004084:	2008d0ba 	srli	r4,r4,2
 8004088:	318000cc 	andi	r6,r6,3
 800408c:	21000044 	addi	r4,r4,1
 8004090:	2109883a 	add	r4,r4,r4
 8004094:	2109883a 	add	r4,r4,r4
 8004098:	1907883a 	add	r3,r3,r4
 800409c:	30000a26 	beq	r6,zero,80040c8 <memset+0xd8>
 80040a0:	198d883a 	add	r6,r3,r6
 80040a4:	19400005 	stb	r5,0(r3)
 80040a8:	18c00044 	addi	r3,r3,1
 80040ac:	19bffd1e 	bne	r3,r6,80040a4 <memset+0xb4>
 80040b0:	f800283a 	ret
 80040b4:	2007883a 	mov	r3,r4
 80040b8:	303ff91e 	bne	r6,zero,80040a0 <memset+0xb0>
 80040bc:	00000206 	br	80040c8 <memset+0xd8>
 80040c0:	2007883a 	mov	r3,r4
 80040c4:	003ff606 	br	80040a0 <memset+0xb0>
 80040c8:	f800283a 	ret

080040cc <_open_r>:
 80040cc:	defffd04 	addi	sp,sp,-12
 80040d0:	dc400115 	stw	r17,4(sp)
 80040d4:	dc000015 	stw	r16,0(sp)
 80040d8:	2023883a 	mov	r17,r4
 80040dc:	040200b4 	movhi	r16,2050
 80040e0:	84207a04 	addi	r16,r16,-32280
 80040e4:	2809883a 	mov	r4,r5
 80040e8:	300b883a 	mov	r5,r6
 80040ec:	380d883a 	mov	r6,r7
 80040f0:	dfc00215 	stw	ra,8(sp)
 80040f4:	80000015 	stw	zero,0(r16)
 80040f8:	801172c0 	call	801172c <open>
 80040fc:	00ffffc4 	movi	r3,-1
 8004100:	10c00526 	beq	r2,r3,8004118 <_open_r+0x4c>
 8004104:	dfc00217 	ldw	ra,8(sp)
 8004108:	dc400117 	ldw	r17,4(sp)
 800410c:	dc000017 	ldw	r16,0(sp)
 8004110:	dec00304 	addi	sp,sp,12
 8004114:	f800283a 	ret
 8004118:	80c00017 	ldw	r3,0(r16)
 800411c:	183ff926 	beq	r3,zero,8004104 <_open_r+0x38>
 8004120:	88c00015 	stw	r3,0(r17)
 8004124:	dfc00217 	ldw	ra,8(sp)
 8004128:	dc400117 	ldw	r17,4(sp)
 800412c:	dc000017 	ldw	r16,0(sp)
 8004130:	dec00304 	addi	sp,sp,12
 8004134:	f800283a 	ret

08004138 <_printf_r>:
 8004138:	defffd04 	addi	sp,sp,-12
 800413c:	dfc00015 	stw	ra,0(sp)
 8004140:	d9800115 	stw	r6,4(sp)
 8004144:	d9c00215 	stw	r7,8(sp)
 8004148:	280d883a 	mov	r6,r5
 800414c:	21400217 	ldw	r5,8(r4)
 8004150:	d9c00104 	addi	r7,sp,4
 8004154:	80047fc0 	call	80047fc <___vfprintf_internal_r>
 8004158:	dfc00017 	ldw	ra,0(sp)
 800415c:	dec00304 	addi	sp,sp,12
 8004160:	f800283a 	ret

08004164 <printf>:
 8004164:	defffc04 	addi	sp,sp,-16
 8004168:	dfc00015 	stw	ra,0(sp)
 800416c:	d9400115 	stw	r5,4(sp)
 8004170:	d9800215 	stw	r6,8(sp)
 8004174:	d9c00315 	stw	r7,12(sp)
 8004178:	00820074 	movhi	r2,2049
 800417c:	10999c04 	addi	r2,r2,26224
 8004180:	10800017 	ldw	r2,0(r2)
 8004184:	200b883a 	mov	r5,r4
 8004188:	d9800104 	addi	r6,sp,4
 800418c:	11000217 	ldw	r4,8(r2)
 8004190:	80066780 	call	8006678 <__vfprintf_internal>
 8004194:	dfc00017 	ldw	ra,0(sp)
 8004198:	dec00404 	addi	sp,sp,16
 800419c:	f800283a 	ret

080041a0 <_putchar_r>:
 80041a0:	21800217 	ldw	r6,8(r4)
 80041a4:	800b3dc1 	jmpi	800b3dc <_putc_r>

080041a8 <putchar>:
 80041a8:	00820074 	movhi	r2,2049
 80041ac:	10999c04 	addi	r2,r2,26224
 80041b0:	10800017 	ldw	r2,0(r2)
 80041b4:	200b883a 	mov	r5,r4
 80041b8:	11800217 	ldw	r6,8(r2)
 80041bc:	1009883a 	mov	r4,r2
 80041c0:	800b3dc1 	jmpi	800b3dc <_putc_r>

080041c4 <_puts_r>:
 80041c4:	defff604 	addi	sp,sp,-40
 80041c8:	dc400815 	stw	r17,32(sp)
 80041cc:	2023883a 	mov	r17,r4
 80041d0:	2809883a 	mov	r4,r5
 80041d4:	dc000715 	stw	r16,28(sp)
 80041d8:	dfc00915 	stw	ra,36(sp)
 80041dc:	2821883a 	mov	r16,r5
 80041e0:	80047340 	call	8004734 <strlen>
 80041e4:	10c00044 	addi	r3,r2,1
 80041e8:	d8800115 	stw	r2,4(sp)
 80041ec:	89400217 	ldw	r5,8(r17)
 80041f0:	00820074 	movhi	r2,2049
 80041f4:	1091bb04 	addi	r2,r2,18156
 80041f8:	d8800215 	stw	r2,8(sp)
 80041fc:	00800044 	movi	r2,1
 8004200:	d8800315 	stw	r2,12(sp)
 8004204:	8809883a 	mov	r4,r17
 8004208:	00800084 	movi	r2,2
 800420c:	d9800404 	addi	r6,sp,16
 8004210:	dc000015 	stw	r16,0(sp)
 8004214:	d8c00615 	stw	r3,24(sp)
 8004218:	dec00415 	stw	sp,16(sp)
 800421c:	d8800515 	stw	r2,20(sp)
 8004220:	80099580 	call	8009958 <__sfvwrite_r>
 8004224:	1000061e 	bne	r2,zero,8004240 <_puts_r+0x7c>
 8004228:	00800284 	movi	r2,10
 800422c:	dfc00917 	ldw	ra,36(sp)
 8004230:	dc400817 	ldw	r17,32(sp)
 8004234:	dc000717 	ldw	r16,28(sp)
 8004238:	dec00a04 	addi	sp,sp,40
 800423c:	f800283a 	ret
 8004240:	00bfffc4 	movi	r2,-1
 8004244:	003ff906 	br	800422c <_puts_r+0x68>

08004248 <puts>:
 8004248:	00820074 	movhi	r2,2049
 800424c:	10999c04 	addi	r2,r2,26224
 8004250:	200b883a 	mov	r5,r4
 8004254:	11000017 	ldw	r4,0(r2)
 8004258:	80041c41 	jmpi	80041c4 <_puts_r>

0800425c <lflush>:
 800425c:	20c0030b 	ldhu	r3,12(r4)
 8004260:	00800244 	movi	r2,9
 8004264:	18c0024c 	andi	r3,r3,9
 8004268:	18800226 	beq	r3,r2,8004274 <lflush+0x18>
 800426c:	0005883a 	mov	r2,zero
 8004270:	f800283a 	ret
 8004274:	80022741 	jmpi	8002274 <fflush>

08004278 <__srefill_r>:
 8004278:	defffd04 	addi	sp,sp,-12
 800427c:	dc400115 	stw	r17,4(sp)
 8004280:	dc000015 	stw	r16,0(sp)
 8004284:	dfc00215 	stw	ra,8(sp)
 8004288:	2023883a 	mov	r17,r4
 800428c:	2821883a 	mov	r16,r5
 8004290:	20000226 	beq	r4,zero,800429c <__srefill_r+0x24>
 8004294:	20800e17 	ldw	r2,56(r4)
 8004298:	10004426 	beq	r2,zero,80043ac <__srefill_r+0x134>
 800429c:	8080030b 	ldhu	r2,12(r16)
 80042a0:	80000115 	stw	zero,4(r16)
 80042a4:	10c0080c 	andi	r3,r2,32
 80042a8:	18ffffcc 	andi	r3,r3,65535
 80042ac:	18e0001c 	xori	r3,r3,32768
 80042b0:	18e00004 	addi	r3,r3,-32768
 80042b4:	1800371e 	bne	r3,zero,8004394 <__srefill_r+0x11c>
 80042b8:	10c0010c 	andi	r3,r2,4
 80042bc:	18ffffcc 	andi	r3,r3,65535
 80042c0:	18e0001c 	xori	r3,r3,32768
 80042c4:	18e00004 	addi	r3,r3,-32768
 80042c8:	18002226 	beq	r3,zero,8004354 <__srefill_r+0xdc>
 80042cc:	81400c17 	ldw	r5,48(r16)
 80042d0:	28000826 	beq	r5,zero,80042f4 <__srefill_r+0x7c>
 80042d4:	80801004 	addi	r2,r16,64
 80042d8:	28800226 	beq	r5,r2,80042e4 <__srefill_r+0x6c>
 80042dc:	8809883a 	mov	r4,r17
 80042e0:	8002ae00 	call	8002ae0 <_free_r>
 80042e4:	80800f17 	ldw	r2,60(r16)
 80042e8:	80000c15 	stw	zero,48(r16)
 80042ec:	80800115 	stw	r2,4(r16)
 80042f0:	1000401e 	bne	r2,zero,80043f4 <__srefill_r+0x17c>
 80042f4:	80800417 	ldw	r2,16(r16)
 80042f8:	10005026 	beq	r2,zero,800443c <__srefill_r+0x1c4>
 80042fc:	8080030b 	ldhu	r2,12(r16)
 8004300:	108000cc 	andi	r2,r2,3
 8004304:	10002b1e 	bne	r2,zero,80043b4 <__srefill_r+0x13c>
 8004308:	81800417 	ldw	r6,16(r16)
 800430c:	80800817 	ldw	r2,32(r16)
 8004310:	81400717 	ldw	r5,28(r16)
 8004314:	81c00517 	ldw	r7,20(r16)
 8004318:	8809883a 	mov	r4,r17
 800431c:	81800015 	stw	r6,0(r16)
 8004320:	103ee83a 	callr	r2
 8004324:	8100030b 	ldhu	r4,12(r16)
 8004328:	00f7ffc4 	movi	r3,-8193
 800432c:	80800115 	stw	r2,4(r16)
 8004330:	20c6703a 	and	r3,r4,r3
 8004334:	80c0030d 	sth	r3,12(r16)
 8004338:	0080130e 	bge	zero,r2,8004388 <__srefill_r+0x110>
 800433c:	0005883a 	mov	r2,zero
 8004340:	dfc00217 	ldw	ra,8(sp)
 8004344:	dc400117 	ldw	r17,4(sp)
 8004348:	dc000017 	ldw	r16,0(sp)
 800434c:	dec00304 	addi	sp,sp,12
 8004350:	f800283a 	ret
 8004354:	10c0040c 	andi	r3,r2,16
 8004358:	18ffffcc 	andi	r3,r3,65535
 800435c:	18e0001c 	xori	r3,r3,32768
 8004360:	18e00004 	addi	r3,r3,-32768
 8004364:	18003926 	beq	r3,zero,800444c <__srefill_r+0x1d4>
 8004368:	10c0020c 	andi	r3,r2,8
 800436c:	18ffffcc 	andi	r3,r3,65535
 8004370:	18e0001c 	xori	r3,r3,32768
 8004374:	18e00004 	addi	r3,r3,-32768
 8004378:	1800261e 	bne	r3,zero,8004414 <__srefill_r+0x19c>
 800437c:	10800114 	ori	r2,r2,4
 8004380:	8080030d 	sth	r2,12(r16)
 8004384:	003fdb06 	br	80042f4 <__srefill_r+0x7c>
 8004388:	1000111e 	bne	r2,zero,80043d0 <__srefill_r+0x158>
 800438c:	18c00814 	ori	r3,r3,32
 8004390:	80c0030d 	sth	r3,12(r16)
 8004394:	00bfffc4 	movi	r2,-1
 8004398:	dfc00217 	ldw	ra,8(sp)
 800439c:	dc400117 	ldw	r17,4(sp)
 80043a0:	dc000017 	ldw	r16,0(sp)
 80043a4:	dec00304 	addi	sp,sp,12
 80043a8:	f800283a 	ret
 80043ac:	80023480 	call	8002348 <__sinit>
 80043b0:	003fba06 	br	800429c <__srefill_r+0x24>
 80043b4:	00820074 	movhi	r2,2049
 80043b8:	10999b04 	addi	r2,r2,26220
 80043bc:	11000017 	ldw	r4,0(r2)
 80043c0:	01420034 	movhi	r5,2048
 80043c4:	29509704 	addi	r5,r5,16988
 80043c8:	800330c0 	call	800330c <_fwalk>
 80043cc:	003fce06 	br	8004308 <__srefill_r+0x90>
 80043d0:	18c01014 	ori	r3,r3,64
 80043d4:	00bfffc4 	movi	r2,-1
 80043d8:	80000115 	stw	zero,4(r16)
 80043dc:	80c0030d 	sth	r3,12(r16)
 80043e0:	dfc00217 	ldw	ra,8(sp)
 80043e4:	dc400117 	ldw	r17,4(sp)
 80043e8:	dc000017 	ldw	r16,0(sp)
 80043ec:	dec00304 	addi	sp,sp,12
 80043f0:	f800283a 	ret
 80043f4:	80c00e17 	ldw	r3,56(r16)
 80043f8:	0005883a 	mov	r2,zero
 80043fc:	80c00015 	stw	r3,0(r16)
 8004400:	dfc00217 	ldw	ra,8(sp)
 8004404:	dc400117 	ldw	r17,4(sp)
 8004408:	dc000017 	ldw	r16,0(sp)
 800440c:	dec00304 	addi	sp,sp,12
 8004410:	f800283a 	ret
 8004414:	8809883a 	mov	r4,r17
 8004418:	800b883a 	mov	r5,r16
 800441c:	800208c0 	call	800208c <_fflush_r>
 8004420:	103fdc1e 	bne	r2,zero,8004394 <__srefill_r+0x11c>
 8004424:	8080030b 	ldhu	r2,12(r16)
 8004428:	00fffdc4 	movi	r3,-9
 800442c:	80000215 	stw	zero,8(r16)
 8004430:	1884703a 	and	r2,r3,r2
 8004434:	80000615 	stw	zero,24(r16)
 8004438:	003fd006 	br	800437c <__srefill_r+0x104>
 800443c:	8809883a 	mov	r4,r17
 8004440:	800b883a 	mov	r5,r16
 8004444:	800355c0 	call	800355c <__smakebuf_r>
 8004448:	003fac06 	br	80042fc <__srefill_r+0x84>
 800444c:	00c00244 	movi	r3,9
 8004450:	10801014 	ori	r2,r2,64
 8004454:	88c00015 	stw	r3,0(r17)
 8004458:	8080030d 	sth	r2,12(r16)
 800445c:	00bfffc4 	movi	r2,-1
 8004460:	003fb706 	br	8004340 <__srefill_r+0xc8>

08004464 <_sbrk_r>:
 8004464:	defffd04 	addi	sp,sp,-12
 8004468:	dc400115 	stw	r17,4(sp)
 800446c:	dc000015 	stw	r16,0(sp)
 8004470:	2023883a 	mov	r17,r4
 8004474:	040200b4 	movhi	r16,2050
 8004478:	84207a04 	addi	r16,r16,-32280
 800447c:	2809883a 	mov	r4,r5
 8004480:	dfc00215 	stw	ra,8(sp)
 8004484:	80000015 	stw	zero,0(r16)
 8004488:	8011a480 	call	8011a48 <sbrk>
 800448c:	00ffffc4 	movi	r3,-1
 8004490:	10c00526 	beq	r2,r3,80044a8 <_sbrk_r+0x44>
 8004494:	dfc00217 	ldw	ra,8(sp)
 8004498:	dc400117 	ldw	r17,4(sp)
 800449c:	dc000017 	ldw	r16,0(sp)
 80044a0:	dec00304 	addi	sp,sp,12
 80044a4:	f800283a 	ret
 80044a8:	80c00017 	ldw	r3,0(r16)
 80044ac:	183ff926 	beq	r3,zero,8004494 <_sbrk_r+0x30>
 80044b0:	88c00015 	stw	r3,0(r17)
 80044b4:	dfc00217 	ldw	ra,8(sp)
 80044b8:	dc400117 	ldw	r17,4(sp)
 80044bc:	dc000017 	ldw	r16,0(sp)
 80044c0:	dec00304 	addi	sp,sp,12
 80044c4:	f800283a 	ret

080044c8 <__sread>:
 80044c8:	defffe04 	addi	sp,sp,-8
 80044cc:	dc000015 	stw	r16,0(sp)
 80044d0:	2821883a 	mov	r16,r5
 80044d4:	2940038f 	ldh	r5,14(r5)
 80044d8:	dfc00115 	stw	ra,4(sp)
 80044dc:	800b5880 	call	800b588 <_read_r>
 80044e0:	10000716 	blt	r2,zero,8004500 <__sread+0x38>
 80044e4:	80c01417 	ldw	r3,80(r16)
 80044e8:	1887883a 	add	r3,r3,r2
 80044ec:	80c01415 	stw	r3,80(r16)
 80044f0:	dfc00117 	ldw	ra,4(sp)
 80044f4:	dc000017 	ldw	r16,0(sp)
 80044f8:	dec00204 	addi	sp,sp,8
 80044fc:	f800283a 	ret
 8004500:	80c0030b 	ldhu	r3,12(r16)
 8004504:	18fbffcc 	andi	r3,r3,61439
 8004508:	80c0030d 	sth	r3,12(r16)
 800450c:	dfc00117 	ldw	ra,4(sp)
 8004510:	dc000017 	ldw	r16,0(sp)
 8004514:	dec00204 	addi	sp,sp,8
 8004518:	f800283a 	ret

0800451c <__swrite>:
 800451c:	2880030b 	ldhu	r2,12(r5)
 8004520:	defffb04 	addi	sp,sp,-20
 8004524:	dcc00315 	stw	r19,12(sp)
 8004528:	10c0400c 	andi	r3,r2,256
 800452c:	18ffffcc 	andi	r3,r3,65535
 8004530:	18e0001c 	xori	r3,r3,32768
 8004534:	dc800215 	stw	r18,8(sp)
 8004538:	dc400115 	stw	r17,4(sp)
 800453c:	dc000015 	stw	r16,0(sp)
 8004540:	dfc00415 	stw	ra,16(sp)
 8004544:	18e00004 	addi	r3,r3,-32768
 8004548:	2821883a 	mov	r16,r5
 800454c:	2027883a 	mov	r19,r4
 8004550:	3025883a 	mov	r18,r6
 8004554:	3823883a 	mov	r17,r7
 8004558:	18000526 	beq	r3,zero,8004570 <__swrite+0x54>
 800455c:	2940038f 	ldh	r5,14(r5)
 8004560:	000d883a 	mov	r6,zero
 8004564:	01c00084 	movi	r7,2
 8004568:	8009fb40 	call	8009fb4 <_lseek_r>
 800456c:	8080030b 	ldhu	r2,12(r16)
 8004570:	8140038f 	ldh	r5,14(r16)
 8004574:	10bbffcc 	andi	r2,r2,61439
 8004578:	9809883a 	mov	r4,r19
 800457c:	900d883a 	mov	r6,r18
 8004580:	880f883a 	mov	r7,r17
 8004584:	8080030d 	sth	r2,12(r16)
 8004588:	dfc00417 	ldw	ra,16(sp)
 800458c:	dcc00317 	ldw	r19,12(sp)
 8004590:	dc800217 	ldw	r18,8(sp)
 8004594:	dc400117 	ldw	r17,4(sp)
 8004598:	dc000017 	ldw	r16,0(sp)
 800459c:	dec00504 	addi	sp,sp,20
 80045a0:	8007e241 	jmpi	8007e24 <_write_r>

080045a4 <__sseek>:
 80045a4:	defffe04 	addi	sp,sp,-8
 80045a8:	dc000015 	stw	r16,0(sp)
 80045ac:	2821883a 	mov	r16,r5
 80045b0:	2940038f 	ldh	r5,14(r5)
 80045b4:	dfc00115 	stw	ra,4(sp)
 80045b8:	8009fb40 	call	8009fb4 <_lseek_r>
 80045bc:	00ffffc4 	movi	r3,-1
 80045c0:	10c00826 	beq	r2,r3,80045e4 <__sseek+0x40>
 80045c4:	80c0030b 	ldhu	r3,12(r16)
 80045c8:	80801415 	stw	r2,80(r16)
 80045cc:	18c40014 	ori	r3,r3,4096
 80045d0:	80c0030d 	sth	r3,12(r16)
 80045d4:	dfc00117 	ldw	ra,4(sp)
 80045d8:	dc000017 	ldw	r16,0(sp)
 80045dc:	dec00204 	addi	sp,sp,8
 80045e0:	f800283a 	ret
 80045e4:	80c0030b 	ldhu	r3,12(r16)
 80045e8:	18fbffcc 	andi	r3,r3,61439
 80045ec:	80c0030d 	sth	r3,12(r16)
 80045f0:	dfc00117 	ldw	ra,4(sp)
 80045f4:	dc000017 	ldw	r16,0(sp)
 80045f8:	dec00204 	addi	sp,sp,8
 80045fc:	f800283a 	ret

08004600 <__sclose>:
 8004600:	2940038f 	ldh	r5,14(r5)
 8004604:	80080041 	jmpi	8008004 <_close_r>

08004608 <strcat>:
 8004608:	defffe04 	addi	sp,sp,-8
 800460c:	dc000015 	stw	r16,0(sp)
 8004610:	dfc00115 	stw	ra,4(sp)
 8004614:	208000cc 	andi	r2,r4,3
 8004618:	2021883a 	mov	r16,r4
 800461c:	1000141e 	bne	r2,zero,8004670 <strcat+0x68>
 8004620:	20800017 	ldw	r2,0(r4)
 8004624:	027fbff4 	movhi	r9,65279
 8004628:	4a7fbfc4 	addi	r9,r9,-257
 800462c:	02202074 	movhi	r8,32897
 8004630:	42202004 	addi	r8,r8,-32640
 8004634:	1247883a 	add	r3,r2,r9
 8004638:	0084303a 	nor	r2,zero,r2
 800463c:	1884703a 	and	r2,r3,r2
 8004640:	1204703a 	and	r2,r2,r8
 8004644:	2007883a 	mov	r3,r4
 8004648:	1000091e 	bne	r2,zero,8004670 <strcat+0x68>
 800464c:	18c00104 	addi	r3,r3,4
 8004650:	19800017 	ldw	r6,0(r3)
 8004654:	324f883a 	add	r7,r6,r9
 8004658:	018c303a 	nor	r6,zero,r6
 800465c:	398c703a 	and	r6,r7,r6
 8004660:	320c703a 	and	r6,r6,r8
 8004664:	303ff926 	beq	r6,zero,800464c <strcat+0x44>
 8004668:	1809883a 	mov	r4,r3
 800466c:	00000106 	br	8004674 <strcat+0x6c>
 8004670:	8009883a 	mov	r4,r16
 8004674:	20800007 	ldb	r2,0(r4)
 8004678:	10000326 	beq	r2,zero,8004688 <strcat+0x80>
 800467c:	21000044 	addi	r4,r4,1
 8004680:	20c00007 	ldb	r3,0(r4)
 8004684:	183ffd1e 	bne	r3,zero,800467c <strcat+0x74>
 8004688:	80046a00 	call	80046a0 <strcpy>
 800468c:	8005883a 	mov	r2,r16
 8004690:	dfc00117 	ldw	ra,4(sp)
 8004694:	dc000017 	ldw	r16,0(sp)
 8004698:	dec00204 	addi	sp,sp,8
 800469c:	f800283a 	ret

080046a0 <strcpy>:
 80046a0:	2906b03a 	or	r3,r5,r4
 80046a4:	18c000cc 	andi	r3,r3,3
 80046a8:	2005883a 	mov	r2,r4
 80046ac:	18001a1e 	bne	r3,zero,8004718 <strcpy+0x78>
 80046b0:	29800017 	ldw	r6,0(r5)
 80046b4:	02bfbff4 	movhi	r10,65279
 80046b8:	52bfbfc4 	addi	r10,r10,-257
 80046bc:	02602074 	movhi	r9,32897
 80046c0:	4a602004 	addi	r9,r9,-32640
 80046c4:	0188303a 	nor	r4,zero,r6
 80046c8:	3287883a 	add	r3,r6,r10
 80046cc:	20c6703a 	and	r3,r4,r3
 80046d0:	1a46703a 	and	r3,r3,r9
 80046d4:	1800101e 	bne	r3,zero,8004718 <strcpy+0x78>
 80046d8:	1007883a 	mov	r3,r2
 80046dc:	19800015 	stw	r6,0(r3)
 80046e0:	29400104 	addi	r5,r5,4
 80046e4:	29800017 	ldw	r6,0(r5)
 80046e8:	18c00104 	addi	r3,r3,4
 80046ec:	0190303a 	nor	r8,zero,r6
 80046f0:	328f883a 	add	r7,r6,r10
 80046f4:	41ce703a 	and	r7,r8,r7
 80046f8:	3a4e703a 	and	r7,r7,r9
 80046fc:	383ff726 	beq	r7,zero,80046dc <strcpy+0x3c>
 8004700:	29800007 	ldb	r6,0(r5)
 8004704:	18c00044 	addi	r3,r3,1
 8004708:	29400044 	addi	r5,r5,1
 800470c:	19bfffc5 	stb	r6,-1(r3)
 8004710:	3000021e 	bne	r6,zero,800471c <strcpy+0x7c>
 8004714:	f800283a 	ret
 8004718:	1007883a 	mov	r3,r2
 800471c:	29800007 	ldb	r6,0(r5)
 8004720:	18c00044 	addi	r3,r3,1
 8004724:	29400044 	addi	r5,r5,1
 8004728:	19bfffc5 	stb	r6,-1(r3)
 800472c:	303ffb1e 	bne	r6,zero,800471c <strcpy+0x7c>
 8004730:	f800283a 	ret

08004734 <strlen>:
 8004734:	208000cc 	andi	r2,r4,3
 8004738:	10001f1e 	bne	r2,zero,80047b8 <strlen+0x84>
 800473c:	20800017 	ldw	r2,0(r4)
 8004740:	01ffbff4 	movhi	r7,65279
 8004744:	39ffbfc4 	addi	r7,r7,-257
 8004748:	01a02074 	movhi	r6,32897
 800474c:	31a02004 	addi	r6,r6,-32640
 8004750:	11c7883a 	add	r3,r2,r7
 8004754:	0084303a 	nor	r2,zero,r2
 8004758:	1886703a 	and	r3,r3,r2
 800475c:	1986703a 	and	r3,r3,r6
 8004760:	2005883a 	mov	r2,r4
 8004764:	1800101e 	bne	r3,zero,80047a8 <strlen+0x74>
 8004768:	10800104 	addi	r2,r2,4
 800476c:	10c00017 	ldw	r3,0(r2)
 8004770:	19cb883a 	add	r5,r3,r7
 8004774:	00c6303a 	nor	r3,zero,r3
 8004778:	28c6703a 	and	r3,r5,r3
 800477c:	1986703a 	and	r3,r3,r6
 8004780:	1800091e 	bne	r3,zero,80047a8 <strlen+0x74>
 8004784:	10800104 	addi	r2,r2,4
 8004788:	10c00017 	ldw	r3,0(r2)
 800478c:	19cb883a 	add	r5,r3,r7
 8004790:	00c6303a 	nor	r3,zero,r3
 8004794:	28c6703a 	and	r3,r5,r3
 8004798:	1986703a 	and	r3,r3,r6
 800479c:	183ff226 	beq	r3,zero,8004768 <strlen+0x34>
 80047a0:	00000106 	br	80047a8 <strlen+0x74>
 80047a4:	10800044 	addi	r2,r2,1
 80047a8:	10c00007 	ldb	r3,0(r2)
 80047ac:	183ffd1e 	bne	r3,zero,80047a4 <strlen+0x70>
 80047b0:	1105c83a 	sub	r2,r2,r4
 80047b4:	f800283a 	ret
 80047b8:	2005883a 	mov	r2,r4
 80047bc:	003ffa06 	br	80047a8 <strlen+0x74>

080047c0 <_times_r>:
 80047c0:	2809883a 	mov	r4,r5
 80047c4:	8011b481 	jmpi	8011b48 <times>

080047c8 <__sprint_r>:
 80047c8:	30800217 	ldw	r2,8(r6)
 80047cc:	defffe04 	addi	sp,sp,-8
 80047d0:	dc000015 	stw	r16,0(sp)
 80047d4:	dfc00115 	stw	ra,4(sp)
 80047d8:	3021883a 	mov	r16,r6
 80047dc:	10000226 	beq	r2,zero,80047e8 <__sprint_r+0x20>
 80047e0:	80099580 	call	8009958 <__sfvwrite_r>
 80047e4:	80000215 	stw	zero,8(r16)
 80047e8:	80000115 	stw	zero,4(r16)
 80047ec:	dfc00117 	ldw	ra,4(sp)
 80047f0:	dc000017 	ldw	r16,0(sp)
 80047f4:	dec00204 	addi	sp,sp,8
 80047f8:	f800283a 	ret

080047fc <___vfprintf_internal_r>:
 80047fc:	defeb904 	addi	sp,sp,-1308
 8004800:	dc013d15 	stw	r16,1268(sp)
 8004804:	d9013015 	stw	r4,1216(sp)
 8004808:	dfc14615 	stw	ra,1304(sp)
 800480c:	df014515 	stw	fp,1300(sp)
 8004810:	ddc14415 	stw	r23,1296(sp)
 8004814:	dd814315 	stw	r22,1292(sp)
 8004818:	dd414215 	stw	r21,1288(sp)
 800481c:	dd014115 	stw	r20,1284(sp)
 8004820:	dcc14015 	stw	r19,1280(sp)
 8004824:	dc813f15 	stw	r18,1276(sp)
 8004828:	dc413e15 	stw	r17,1272(sp)
 800482c:	d9412915 	stw	r5,1188(sp)
 8004830:	3021883a 	mov	r16,r6
 8004834:	d9c12d15 	stw	r7,1204(sp)
 8004838:	8009f800 	call	8009f80 <_localeconv_r>
 800483c:	10800017 	ldw	r2,0(r2)
 8004840:	d9013017 	ldw	r4,1216(sp)
 8004844:	d8013315 	stw	zero,1228(sp)
 8004848:	d8813715 	stw	r2,1244(sp)
 800484c:	d8013415 	stw	zero,1232(sp)
 8004850:	20000226 	beq	r4,zero,800485c <___vfprintf_internal_r+0x60>
 8004854:	20800e17 	ldw	r2,56(r4)
 8004858:	10014b26 	beq	r2,zero,8004d88 <___vfprintf_internal_r+0x58c>
 800485c:	d8c12917 	ldw	r3,1188(sp)
 8004860:	1880030b 	ldhu	r2,12(r3)
 8004864:	10c0020c 	andi	r3,r2,8
 8004868:	18ffffcc 	andi	r3,r3,65535
 800486c:	18e0001c 	xori	r3,r3,32768
 8004870:	18e00004 	addi	r3,r3,-32768
 8004874:	1800ed26 	beq	r3,zero,8004c2c <___vfprintf_internal_r+0x430>
 8004878:	d9012917 	ldw	r4,1188(sp)
 800487c:	20c00417 	ldw	r3,16(r4)
 8004880:	1800ea26 	beq	r3,zero,8004c2c <___vfprintf_internal_r+0x430>
 8004884:	1100068c 	andi	r4,r2,26
 8004888:	00c00284 	movi	r3,10
 800488c:	20c0f026 	beq	r4,r3,8004c50 <___vfprintf_internal_r+0x454>
 8004890:	d9010dc4 	addi	r4,sp,1079
 8004894:	d8810e04 	addi	r2,sp,1080
 8004898:	dc413017 	ldw	r17,1216(sp)
 800489c:	d8c00404 	addi	r3,sp,16
 80048a0:	d9012615 	stw	r4,1176(sp)
 80048a4:	1109c83a 	sub	r4,r2,r4
 80048a8:	d8812715 	stw	r2,1180(sp)
 80048ac:	d8c11b15 	stw	r3,1132(sp)
 80048b0:	d8011d15 	stw	zero,1140(sp)
 80048b4:	d8011c15 	stw	zero,1136(sp)
 80048b8:	802b883a 	mov	r21,r16
 80048bc:	d8013215 	stw	zero,1224(sp)
 80048c0:	d8013615 	stw	zero,1240(sp)
 80048c4:	d8013515 	stw	zero,1236(sp)
 80048c8:	d8012c15 	stw	zero,1200(sp)
 80048cc:	1813883a 	mov	r9,r3
 80048d0:	d9013915 	stw	r4,1252(sp)
 80048d4:	a8800007 	ldb	r2,0(r21)
 80048d8:	1002f326 	beq	r2,zero,80054a8 <___vfprintf_internal_r+0xcac>
 80048dc:	00c00944 	movi	r3,37
 80048e0:	a825883a 	mov	r18,r21
 80048e4:	10c0021e 	bne	r2,r3,80048f0 <___vfprintf_internal_r+0xf4>
 80048e8:	00001406 	br	800493c <___vfprintf_internal_r+0x140>
 80048ec:	10c00326 	beq	r2,r3,80048fc <___vfprintf_internal_r+0x100>
 80048f0:	94800044 	addi	r18,r18,1
 80048f4:	90800007 	ldb	r2,0(r18)
 80048f8:	103ffc1e 	bne	r2,zero,80048ec <___vfprintf_internal_r+0xf0>
 80048fc:	9561c83a 	sub	r16,r18,r21
 8004900:	80000e26 	beq	r16,zero,800493c <___vfprintf_internal_r+0x140>
 8004904:	da011d17 	ldw	r8,1140(sp)
 8004908:	d8c11c17 	ldw	r3,1136(sp)
 800490c:	4d400015 	stw	r21,0(r9)
 8004910:	4c000115 	stw	r16,4(r9)
 8004914:	4411883a 	add	r8,r8,r16
 8004918:	18c00044 	addi	r3,r3,1
 800491c:	da011d15 	stw	r8,1140(sp)
 8004920:	d8c11c15 	stw	r3,1136(sp)
 8004924:	008001c4 	movi	r2,7
 8004928:	10c11016 	blt	r2,r3,8004d6c <___vfprintf_internal_r+0x570>
 800492c:	4a400204 	addi	r9,r9,8
 8004930:	d8812c17 	ldw	r2,1200(sp)
 8004934:	1405883a 	add	r2,r2,r16
 8004938:	d8812c15 	stw	r2,1200(sp)
 800493c:	90800007 	ldb	r2,0(r18)
 8004940:	1000ee26 	beq	r2,zero,8004cfc <___vfprintf_internal_r+0x500>
 8004944:	95400044 	addi	r21,r18,1
 8004948:	94800047 	ldb	r18,1(r18)
 800494c:	073fffc4 	movi	fp,-1
 8004950:	e007883a 	mov	r3,fp
 8004954:	d8012585 	stb	zero,1174(sp)
 8004958:	d8012e15 	stw	zero,1208(sp)
 800495c:	0021883a 	mov	r16,zero
 8004960:	05001604 	movi	r20,88
 8004964:	04c00244 	movi	r19,9
 8004968:	4839883a 	mov	fp,r9
 800496c:	ad400044 	addi	r21,r21,1
 8004970:	90bff804 	addi	r2,r18,-32
 8004974:	a080462e 	bgeu	r20,r2,8004a90 <___vfprintf_internal_r+0x294>
 8004978:	e013883a 	mov	r9,fp
 800497c:	9000df26 	beq	r18,zero,8004cfc <___vfprintf_internal_r+0x500>
 8004980:	00c00044 	movi	r3,1
 8004984:	d8c12815 	stw	r3,1184(sp)
 8004988:	dc810405 	stb	r18,1040(sp)
 800498c:	d8012585 	stb	zero,1174(sp)
 8004990:	d8c12b15 	stw	r3,1196(sp)
 8004994:	dcc10404 	addi	r19,sp,1040
 8004998:	d8013115 	stw	zero,1220(sp)
 800499c:	80c0008c 	andi	r3,r16,2
 80049a0:	d8c12a15 	stw	r3,1192(sp)
 80049a4:	18000326 	beq	r3,zero,80049b4 <___vfprintf_internal_r+0x1b8>
 80049a8:	d8c12817 	ldw	r3,1184(sp)
 80049ac:	18c00084 	addi	r3,r3,2
 80049b0:	d8c12815 	stw	r3,1184(sp)
 80049b4:	80c0210c 	andi	r3,r16,132
 80049b8:	d8c12f15 	stw	r3,1212(sp)
 80049bc:	1802251e 	bne	r3,zero,8005254 <___vfprintf_internal_r+0xa58>
 80049c0:	d9012e17 	ldw	r4,1208(sp)
 80049c4:	d8c12817 	ldw	r3,1184(sp)
 80049c8:	20edc83a 	sub	r22,r4,r3
 80049cc:	0582210e 	bge	zero,r22,8005254 <___vfprintf_internal_r+0xa58>
 80049d0:	02800404 	movi	r10,16
 80049d4:	da011d17 	ldw	r8,1140(sp)
 80049d8:	d8c11c17 	ldw	r3,1136(sp)
 80049dc:	05c20074 	movhi	r23,2049
 80049e0:	bdd1cc84 	addi	r23,r23,18226
 80049e4:	5580200e 	bge	r10,r22,8004a68 <___vfprintf_internal_r+0x26c>
 80049e8:	dc813815 	stw	r18,1248(sp)
 80049ec:	5039883a 	mov	fp,r10
 80049f0:	b825883a 	mov	r18,r23
 80049f4:	050001c4 	movi	r20,7
 80049f8:	b02f883a 	mov	r23,r22
 80049fc:	802d883a 	mov	r22,r16
 8004a00:	dc012917 	ldw	r16,1188(sp)
 8004a04:	00000306 	br	8004a14 <___vfprintf_internal_r+0x218>
 8004a08:	bdfffc04 	addi	r23,r23,-16
 8004a0c:	4a400204 	addi	r9,r9,8
 8004a10:	e5c0110e 	bge	fp,r23,8004a58 <___vfprintf_internal_r+0x25c>
 8004a14:	4c800015 	stw	r18,0(r9)
 8004a18:	4f000115 	stw	fp,4(r9)
 8004a1c:	42000404 	addi	r8,r8,16
 8004a20:	18c00044 	addi	r3,r3,1
 8004a24:	da011d15 	stw	r8,1140(sp)
 8004a28:	d8c11c15 	stw	r3,1136(sp)
 8004a2c:	a0fff60e 	bge	r20,r3,8004a08 <___vfprintf_internal_r+0x20c>
 8004a30:	8809883a 	mov	r4,r17
 8004a34:	800b883a 	mov	r5,r16
 8004a38:	d9811b04 	addi	r6,sp,1132
 8004a3c:	80047c80 	call	80047c8 <__sprint_r>
 8004a40:	1000b41e 	bne	r2,zero,8004d14 <___vfprintf_internal_r+0x518>
 8004a44:	bdfffc04 	addi	r23,r23,-16
 8004a48:	da011d17 	ldw	r8,1140(sp)
 8004a4c:	d8c11c17 	ldw	r3,1136(sp)
 8004a50:	da400404 	addi	r9,sp,16
 8004a54:	e5ffef16 	blt	fp,r23,8004a14 <___vfprintf_internal_r+0x218>
 8004a58:	b021883a 	mov	r16,r22
 8004a5c:	b82d883a 	mov	r22,r23
 8004a60:	902f883a 	mov	r23,r18
 8004a64:	dc813817 	ldw	r18,1248(sp)
 8004a68:	4dc00015 	stw	r23,0(r9)
 8004a6c:	4d800115 	stw	r22,4(r9)
 8004a70:	4591883a 	add	r8,r8,r22
 8004a74:	18c00044 	addi	r3,r3,1
 8004a78:	da011d15 	stw	r8,1140(sp)
 8004a7c:	d8c11c15 	stw	r3,1136(sp)
 8004a80:	008001c4 	movi	r2,7
 8004a84:	10c3fe16 	blt	r2,r3,8005a80 <___vfprintf_internal_r+0x1284>
 8004a88:	4a400204 	addi	r9,r9,8
 8004a8c:	0001f306 	br	800525c <___vfprintf_internal_r+0xa60>
 8004a90:	1085883a 	add	r2,r2,r2
 8004a94:	1085883a 	add	r2,r2,r2
 8004a98:	01020034 	movhi	r4,2048
 8004a9c:	2112ab04 	addi	r4,r4,19116
 8004aa0:	1105883a 	add	r2,r2,r4
 8004aa4:	10800017 	ldw	r2,0(r2)
 8004aa8:	1000683a 	jmp	r2
 8004aac:	08005188 	cmpgei	zero,at,326
 8004ab0:	08004978 	rdprs	zero,at,293
 8004ab4:	08004978 	rdprs	zero,at,293
 8004ab8:	080051a0 	cmpeqi	zero,at,326
 8004abc:	08004978 	rdprs	zero,at,293
 8004ac0:	08004978 	rdprs	zero,at,293
 8004ac4:	08004978 	rdprs	zero,at,293
 8004ac8:	08004978 	rdprs	zero,at,293
 8004acc:	08004978 	rdprs	zero,at,293
 8004ad0:	08004978 	rdprs	zero,at,293
 8004ad4:	08005058 	cmpnei	zero,at,321
 8004ad8:	080051ec 	andhi	zero,at,327
 8004adc:	08004978 	rdprs	zero,at,293
 8004ae0:	08004c20 	cmpeqi	zero,at,304
 8004ae4:	08004fc0 	call	8004fc <__reset-0x77ffb04>
 8004ae8:	08004978 	rdprs	zero,at,293
 8004aec:	080051ac 	andhi	zero,at,326
 8004af0:	080051b8 	rdprs	zero,at,326
 8004af4:	080051b8 	rdprs	zero,at,326
 8004af8:	080051b8 	rdprs	zero,at,326
 8004afc:	080051b8 	rdprs	zero,at,326
 8004b00:	080051b8 	rdprs	zero,at,326
 8004b04:	080051b8 	rdprs	zero,at,326
 8004b08:	080051b8 	rdprs	zero,at,326
 8004b0c:	080051b8 	rdprs	zero,at,326
 8004b10:	080051b8 	rdprs	zero,at,326
 8004b14:	08004978 	rdprs	zero,at,293
 8004b18:	08004978 	rdprs	zero,at,293
 8004b1c:	08004978 	rdprs	zero,at,293
 8004b20:	08004978 	rdprs	zero,at,293
 8004b24:	08004978 	rdprs	zero,at,293
 8004b28:	08004978 	rdprs	zero,at,293
 8004b2c:	08004978 	rdprs	zero,at,293
 8004b30:	08004978 	rdprs	zero,at,293
 8004b34:	08004978 	rdprs	zero,at,293
 8004b38:	08004978 	rdprs	zero,at,293
 8004b3c:	08004d90 	cmplti	zero,at,310
 8004b40:	08004e50 	cmplti	zero,at,313
 8004b44:	08004978 	rdprs	zero,at,293
 8004b48:	08004e50 	cmplti	zero,at,313
 8004b4c:	08004978 	rdprs	zero,at,293
 8004b50:	08004978 	rdprs	zero,at,293
 8004b54:	08004978 	rdprs	zero,at,293
 8004b58:	08004978 	rdprs	zero,at,293
 8004b5c:	08004ee4 	muli	zero,at,315
 8004b60:	08004978 	rdprs	zero,at,293
 8004b64:	08004978 	rdprs	zero,at,293
 8004b68:	08004ef0 	cmpltui	zero,at,315
 8004b6c:	08004978 	rdprs	zero,at,293
 8004b70:	08004978 	rdprs	zero,at,293
 8004b74:	08004978 	rdprs	zero,at,293
 8004b78:	08004978 	rdprs	zero,at,293
 8004b7c:	08004978 	rdprs	zero,at,293
 8004b80:	08004f28 	cmpgeui	zero,at,316
 8004b84:	08004978 	rdprs	zero,at,293
 8004b88:	08004978 	rdprs	zero,at,293
 8004b8c:	08004f64 	muli	zero,at,317
 8004b90:	08004978 	rdprs	zero,at,293
 8004b94:	08004978 	rdprs	zero,at,293
 8004b98:	08004978 	rdprs	zero,at,293
 8004b9c:	08004978 	rdprs	zero,at,293
 8004ba0:	08004978 	rdprs	zero,at,293
 8004ba4:	08004978 	rdprs	zero,at,293
 8004ba8:	08004978 	rdprs	zero,at,293
 8004bac:	08004978 	rdprs	zero,at,293
 8004bb0:	08004978 	rdprs	zero,at,293
 8004bb4:	08004978 	rdprs	zero,at,293
 8004bb8:	080051fc 	xorhi	zero,at,327
 8004bbc:	08005230 	cmpltui	zero,at,328
 8004bc0:	08004e50 	cmplti	zero,at,313
 8004bc4:	08004e50 	cmplti	zero,at,313
 8004bc8:	08004e50 	cmplti	zero,at,313
 8004bcc:	0800517c 	xorhi	zero,at,325
 8004bd0:	08005230 	cmpltui	zero,at,328
 8004bd4:	08004978 	rdprs	zero,at,293
 8004bd8:	08004978 	rdprs	zero,at,293
 8004bdc:	08005008 	cmpgei	zero,at,320
 8004be0:	08004978 	rdprs	zero,at,293
 8004be4:	08005020 	cmpeqi	zero,at,320
 8004be8:	0800523c 	xorhi	zero,at,328
 8004bec:	08005080 	call	800508 <__reset-0x77ffaf8>
 8004bf0:	080050d0 	cmplti	zero,at,323
 8004bf4:	08004978 	rdprs	zero,at,293
 8004bf8:	080050dc 	xori	zero,at,323
 8004bfc:	08004978 	rdprs	zero,at,293
 8004c00:	08005248 	cmpgei	zero,at,329
 8004c04:	08004978 	rdprs	zero,at,293
 8004c08:	08004978 	rdprs	zero,at,293
 8004c0c:	08005140 	call	800514 <__reset-0x77ffaec>
 8004c10:	d9012e17 	ldw	r4,1208(sp)
 8004c14:	d8812d15 	stw	r2,1204(sp)
 8004c18:	0109c83a 	sub	r4,zero,r4
 8004c1c:	d9012e15 	stw	r4,1208(sp)
 8004c20:	84000114 	ori	r16,r16,4
 8004c24:	ac800007 	ldb	r18,0(r21)
 8004c28:	003f5006 	br	800496c <___vfprintf_internal_r+0x170>
 8004c2c:	d9013017 	ldw	r4,1216(sp)
 8004c30:	d9412917 	ldw	r5,1188(sp)
 8004c34:	8007e900 	call	8007e90 <__swsetup_r>
 8004c38:	10003d1e 	bne	r2,zero,8004d30 <___vfprintf_internal_r+0x534>
 8004c3c:	d8c12917 	ldw	r3,1188(sp)
 8004c40:	1880030b 	ldhu	r2,12(r3)
 8004c44:	00c00284 	movi	r3,10
 8004c48:	1100068c 	andi	r4,r2,26
 8004c4c:	20ff101e 	bne	r4,r3,8004890 <___vfprintf_internal_r+0x94>
 8004c50:	d9012917 	ldw	r4,1188(sp)
 8004c54:	20c0038b 	ldhu	r3,14(r4)
 8004c58:	193fffcc 	andi	r4,r3,65535
 8004c5c:	2120001c 	xori	r4,r4,32768
 8004c60:	21200004 	addi	r4,r4,-32768
 8004c64:	203f0a16 	blt	r4,zero,8004890 <___vfprintf_internal_r+0x94>
 8004c68:	d9012917 	ldw	r4,1188(sp)
 8004c6c:	d9c12d17 	ldw	r7,1204(sp)
 8004c70:	10bfff4c 	andi	r2,r2,65533
 8004c74:	22800717 	ldw	r10,28(r4)
 8004c78:	22400917 	ldw	r9,36(r4)
 8004c7c:	d9013017 	ldw	r4,1216(sp)
 8004c80:	02010004 	movi	r8,1024
 8004c84:	d881070d 	sth	r2,1052(sp)
 8004c88:	d9410404 	addi	r5,sp,1040
 8004c8c:	d8800404 	addi	r2,sp,16
 8004c90:	800d883a 	mov	r6,r16
 8004c94:	d8c1078d 	sth	r3,1054(sp)
 8004c98:	da810b15 	stw	r10,1068(sp)
 8004c9c:	da410d15 	stw	r9,1076(sp)
 8004ca0:	d8810415 	stw	r2,1040(sp)
 8004ca4:	d8810815 	stw	r2,1056(sp)
 8004ca8:	da010615 	stw	r8,1048(sp)
 8004cac:	da010915 	stw	r8,1060(sp)
 8004cb0:	d8010a15 	stw	zero,1064(sp)
 8004cb4:	80047fc0 	call	80047fc <___vfprintf_internal_r>
 8004cb8:	d8812c15 	stw	r2,1200(sp)
 8004cbc:	10000416 	blt	r2,zero,8004cd0 <___vfprintf_internal_r+0x4d4>
 8004cc0:	d9013017 	ldw	r4,1216(sp)
 8004cc4:	d9410404 	addi	r5,sp,1040
 8004cc8:	800208c0 	call	800208c <_fflush_r>
 8004ccc:	1006501e 	bne	r2,zero,8006610 <___vfprintf_internal_r+0x1e14>
 8004cd0:	d881070b 	ldhu	r2,1052(sp)
 8004cd4:	1080100c 	andi	r2,r2,64
 8004cd8:	10bfffcc 	andi	r2,r2,65535
 8004cdc:	10a0001c 	xori	r2,r2,32768
 8004ce0:	10a00004 	addi	r2,r2,-32768
 8004ce4:	10001426 	beq	r2,zero,8004d38 <___vfprintf_internal_r+0x53c>
 8004ce8:	d8c12917 	ldw	r3,1188(sp)
 8004cec:	1880030b 	ldhu	r2,12(r3)
 8004cf0:	10801014 	ori	r2,r2,64
 8004cf4:	1880030d 	sth	r2,12(r3)
 8004cf8:	00000f06 	br	8004d38 <___vfprintf_internal_r+0x53c>
 8004cfc:	d8811d17 	ldw	r2,1140(sp)
 8004d00:	10000426 	beq	r2,zero,8004d14 <___vfprintf_internal_r+0x518>
 8004d04:	d9013017 	ldw	r4,1216(sp)
 8004d08:	d9412917 	ldw	r5,1188(sp)
 8004d0c:	d9811b04 	addi	r6,sp,1132
 8004d10:	80047c80 	call	80047c8 <__sprint_r>
 8004d14:	d8c12917 	ldw	r3,1188(sp)
 8004d18:	1880030b 	ldhu	r2,12(r3)
 8004d1c:	1080100c 	andi	r2,r2,64
 8004d20:	10bfffcc 	andi	r2,r2,65535
 8004d24:	10a0001c 	xori	r2,r2,32768
 8004d28:	10a00004 	addi	r2,r2,-32768
 8004d2c:	10000226 	beq	r2,zero,8004d38 <___vfprintf_internal_r+0x53c>
 8004d30:	00bfffc4 	movi	r2,-1
 8004d34:	d8812c15 	stw	r2,1200(sp)
 8004d38:	d8812c17 	ldw	r2,1200(sp)
 8004d3c:	dfc14617 	ldw	ra,1304(sp)
 8004d40:	df014517 	ldw	fp,1300(sp)
 8004d44:	ddc14417 	ldw	r23,1296(sp)
 8004d48:	dd814317 	ldw	r22,1292(sp)
 8004d4c:	dd414217 	ldw	r21,1288(sp)
 8004d50:	dd014117 	ldw	r20,1284(sp)
 8004d54:	dcc14017 	ldw	r19,1280(sp)
 8004d58:	dc813f17 	ldw	r18,1276(sp)
 8004d5c:	dc413e17 	ldw	r17,1272(sp)
 8004d60:	dc013d17 	ldw	r16,1268(sp)
 8004d64:	dec14704 	addi	sp,sp,1308
 8004d68:	f800283a 	ret
 8004d6c:	d9412917 	ldw	r5,1188(sp)
 8004d70:	8809883a 	mov	r4,r17
 8004d74:	d9811b04 	addi	r6,sp,1132
 8004d78:	80047c80 	call	80047c8 <__sprint_r>
 8004d7c:	103fe51e 	bne	r2,zero,8004d14 <___vfprintf_internal_r+0x518>
 8004d80:	da400404 	addi	r9,sp,16
 8004d84:	003eea06 	br	8004930 <___vfprintf_internal_r+0x134>
 8004d88:	80023480 	call	8002348 <__sinit>
 8004d8c:	003eb306 	br	800485c <___vfprintf_internal_r+0x60>
 8004d90:	e013883a 	mov	r9,fp
 8004d94:	84000414 	ori	r16,r16,16
 8004d98:	1839883a 	mov	fp,r3
 8004d9c:	8080080c 	andi	r2,r16,32
 8004da0:	10034426 	beq	r2,zero,8005ab4 <___vfprintf_internal_r+0x12b8>
 8004da4:	d8c12d17 	ldw	r3,1204(sp)
 8004da8:	18800117 	ldw	r2,4(r3)
 8004dac:	1dc00017 	ldw	r23,0(r3)
 8004db0:	18c00204 	addi	r3,r3,8
 8004db4:	d8c12d15 	stw	r3,1204(sp)
 8004db8:	102d883a 	mov	r22,r2
 8004dbc:	1003020e 	bge	r2,zero,80059c8 <___vfprintf_internal_r+0x11cc>
 8004dc0:	05efc83a 	sub	r23,zero,r23
 8004dc4:	b804c03a 	cmpne	r2,r23,zero
 8004dc8:	05adc83a 	sub	r22,zero,r22
 8004dcc:	b0adc83a 	sub	r22,r22,r2
 8004dd0:	00800b44 	movi	r2,45
 8004dd4:	d8812585 	stb	r2,1174(sp)
 8004dd8:	00c00044 	movi	r3,1
 8004ddc:	bd84b03a 	or	r2,r23,r22
 8004de0:	e0000216 	blt	fp,zero,8004dec <___vfprintf_internal_r+0x5f0>
 8004de4:	013fdfc4 	movi	r4,-129
 8004de8:	8120703a 	and	r16,r16,r4
 8004dec:	1001cc1e 	bne	r2,zero,8005520 <___vfprintf_internal_r+0xd24>
 8004df0:	e001cb1e 	bne	fp,zero,8005520 <___vfprintf_internal_r+0xd24>
 8004df4:	18c03fcc 	andi	r3,r3,255
 8004df8:	1802ca1e 	bne	r3,zero,8005924 <___vfprintf_internal_r+0x1128>
 8004dfc:	8080004c 	andi	r2,r16,1
 8004e00:	1002c826 	beq	r2,zero,8005924 <___vfprintf_internal_r+0x1128>
 8004e04:	d8c13917 	ldw	r3,1252(sp)
 8004e08:	00800c04 	movi	r2,48
 8004e0c:	d8810dc5 	stb	r2,1079(sp)
 8004e10:	d8c12b15 	stw	r3,1196(sp)
 8004e14:	dcc10dc4 	addi	r19,sp,1079
 8004e18:	d8812b17 	ldw	r2,1196(sp)
 8004e1c:	d8812815 	stw	r2,1184(sp)
 8004e20:	1700010e 	bge	r2,fp,8004e28 <___vfprintf_internal_r+0x62c>
 8004e24:	df012815 	stw	fp,1184(sp)
 8004e28:	d8812583 	ldbu	r2,1174(sp)
 8004e2c:	df013115 	stw	fp,1220(sp)
 8004e30:	10803fcc 	andi	r2,r2,255
 8004e34:	1080201c 	xori	r2,r2,128
 8004e38:	10bfe004 	addi	r2,r2,-128
 8004e3c:	103ed726 	beq	r2,zero,800499c <___vfprintf_internal_r+0x1a0>
 8004e40:	d8c12817 	ldw	r3,1184(sp)
 8004e44:	18c00044 	addi	r3,r3,1
 8004e48:	d8c12815 	stw	r3,1184(sp)
 8004e4c:	003ed306 	br	800499c <___vfprintf_internal_r+0x1a0>
 8004e50:	8080020c 	andi	r2,r16,8
 8004e54:	e013883a 	mov	r9,fp
 8004e58:	1839883a 	mov	fp,r3
 8004e5c:	1003a626 	beq	r2,zero,8005cf8 <___vfprintf_internal_r+0x14fc>
 8004e60:	d9012d17 	ldw	r4,1204(sp)
 8004e64:	25800017 	ldw	r22,0(r4)
 8004e68:	25000117 	ldw	r20,4(r4)
 8004e6c:	21000204 	addi	r4,r4,8
 8004e70:	d9012d15 	stw	r4,1204(sp)
 8004e74:	dd813315 	stw	r22,1228(sp)
 8004e78:	dd013415 	stw	r20,1232(sp)
 8004e7c:	b009883a 	mov	r4,r22
 8004e80:	a00b883a 	mov	r5,r20
 8004e84:	da413c15 	stw	r9,1264(sp)
 8004e88:	800bbf00 	call	800bbf0 <__isinfd>
 8004e8c:	da413c17 	ldw	r9,1264(sp)
 8004e90:	b009883a 	mov	r4,r22
 8004e94:	a00b883a 	mov	r5,r20
 8004e98:	10041d26 	beq	r2,zero,8005f10 <___vfprintf_internal_r+0x1714>
 8004e9c:	000d883a 	mov	r6,zero
 8004ea0:	000f883a 	mov	r7,zero
 8004ea4:	80109200 	call	8010920 <__ltdf2>
 8004ea8:	da413c17 	ldw	r9,1264(sp)
 8004eac:	1004da16 	blt	r2,zero,8006218 <___vfprintf_internal_r+0x1a1c>
 8004eb0:	d8812583 	ldbu	r2,1174(sp)
 8004eb4:	00c011c4 	movi	r3,71
 8004eb8:	1c83d116 	blt	r3,r18,8005e00 <___vfprintf_internal_r+0x1604>
 8004ebc:	04c20074 	movhi	r19,2049
 8004ec0:	9cd1bc04 	addi	r19,r19,18160
 8004ec4:	00c000c4 	movi	r3,3
 8004ec8:	d8c12815 	stw	r3,1184(sp)
 8004ecc:	00ffdfc4 	movi	r3,-129
 8004ed0:	80e0703a 	and	r16,r16,r3
 8004ed4:	d8c12817 	ldw	r3,1184(sp)
 8004ed8:	d8013115 	stw	zero,1220(sp)
 8004edc:	d8c12b15 	stw	r3,1196(sp)
 8004ee0:	003fd306 	br	8004e30 <___vfprintf_internal_r+0x634>
 8004ee4:	84000214 	ori	r16,r16,8
 8004ee8:	ac800007 	ldb	r18,0(r21)
 8004eec:	003e9f06 	br	800496c <___vfprintf_internal_r+0x170>
 8004ef0:	e013883a 	mov	r9,fp
 8004ef4:	84000414 	ori	r16,r16,16
 8004ef8:	1839883a 	mov	fp,r3
 8004efc:	8080080c 	andi	r2,r16,32
 8004f00:	10031d26 	beq	r2,zero,8005b78 <___vfprintf_internal_r+0x137c>
 8004f04:	d8812d17 	ldw	r2,1204(sp)
 8004f08:	0007883a 	mov	r3,zero
 8004f0c:	15c00017 	ldw	r23,0(r2)
 8004f10:	15800117 	ldw	r22,4(r2)
 8004f14:	10800204 	addi	r2,r2,8
 8004f18:	d8812d15 	stw	r2,1204(sp)
 8004f1c:	d8012585 	stb	zero,1174(sp)
 8004f20:	bd84b03a 	or	r2,r23,r22
 8004f24:	003fae06 	br	8004de0 <___vfprintf_internal_r+0x5e4>
 8004f28:	e013883a 	mov	r9,fp
 8004f2c:	84000414 	ori	r16,r16,16
 8004f30:	1839883a 	mov	fp,r3
 8004f34:	8080080c 	andi	r2,r16,32
 8004f38:	1002e726 	beq	r2,zero,8005ad8 <___vfprintf_internal_r+0x12dc>
 8004f3c:	d8c12d17 	ldw	r3,1204(sp)
 8004f40:	d9012d17 	ldw	r4,1204(sp)
 8004f44:	1dc00017 	ldw	r23,0(r3)
 8004f48:	1d800117 	ldw	r22,4(r3)
 8004f4c:	21000204 	addi	r4,r4,8
 8004f50:	00c00044 	movi	r3,1
 8004f54:	d9012d15 	stw	r4,1204(sp)
 8004f58:	bd84b03a 	or	r2,r23,r22
 8004f5c:	d8012585 	stb	zero,1174(sp)
 8004f60:	003f9f06 	br	8004de0 <___vfprintf_internal_r+0x5e4>
 8004f64:	e013883a 	mov	r9,fp
 8004f68:	1839883a 	mov	fp,r3
 8004f6c:	00c20074 	movhi	r3,2049
 8004f70:	18d1c004 	addi	r3,r3,18176
 8004f74:	d8c13615 	stw	r3,1240(sp)
 8004f78:	8080080c 	andi	r2,r16,32
 8004f7c:	10007726 	beq	r2,zero,800515c <___vfprintf_internal_r+0x960>
 8004f80:	d9012d17 	ldw	r4,1204(sp)
 8004f84:	25c00017 	ldw	r23,0(r4)
 8004f88:	25800117 	ldw	r22,4(r4)
 8004f8c:	21000204 	addi	r4,r4,8
 8004f90:	d9012d15 	stw	r4,1204(sp)
 8004f94:	8080004c 	andi	r2,r16,1
 8004f98:	1002c226 	beq	r2,zero,8005aa4 <___vfprintf_internal_r+0x12a8>
 8004f9c:	bd84b03a 	or	r2,r23,r22
 8004fa0:	10035d26 	beq	r2,zero,8005d18 <___vfprintf_internal_r+0x151c>
 8004fa4:	00c00c04 	movi	r3,48
 8004fa8:	d8c12505 	stb	r3,1172(sp)
 8004fac:	dc812545 	stb	r18,1173(sp)
 8004fb0:	84000094 	ori	r16,r16,2
 8004fb4:	00c00084 	movi	r3,2
 8004fb8:	d8012585 	stb	zero,1174(sp)
 8004fbc:	003f8806 	br	8004de0 <___vfprintf_internal_r+0x5e4>
 8004fc0:	ac800007 	ldb	r18,0(r21)
 8004fc4:	00c00a84 	movi	r3,42
 8004fc8:	adc00044 	addi	r23,r21,1
 8004fcc:	90c57526 	beq	r18,r3,80065a4 <___vfprintf_internal_r+0x1da8>
 8004fd0:	95bff404 	addi	r22,r18,-48
 8004fd4:	0009883a 	mov	r4,zero
 8004fd8:	9d84ff36 	bltu	r19,r22,80063d8 <___vfprintf_internal_r+0x1bdc>
 8004fdc:	01400284 	movi	r5,10
 8004fe0:	8001a6c0 	call	8001a6c <__mulsi3>
 8004fe4:	bc800007 	ldb	r18,0(r23)
 8004fe8:	b089883a 	add	r4,r22,r2
 8004fec:	bdc00044 	addi	r23,r23,1
 8004ff0:	95bff404 	addi	r22,r18,-48
 8004ff4:	9dbff92e 	bgeu	r19,r22,8004fdc <___vfprintf_internal_r+0x7e0>
 8004ff8:	2007883a 	mov	r3,r4
 8004ffc:	20044316 	blt	r4,zero,800610c <___vfprintf_internal_r+0x1910>
 8005000:	b82b883a 	mov	r21,r23
 8005004:	003e5a06 	br	8004970 <___vfprintf_internal_r+0x174>
 8005008:	ac800007 	ldb	r18,0(r21)
 800500c:	01001b04 	movi	r4,108
 8005010:	a805883a 	mov	r2,r21
 8005014:	91045526 	beq	r18,r4,800616c <___vfprintf_internal_r+0x1970>
 8005018:	84000414 	ori	r16,r16,16
 800501c:	003e5306 	br	800496c <___vfprintf_internal_r+0x170>
 8005020:	8080080c 	andi	r2,r16,32
 8005024:	e013883a 	mov	r9,fp
 8005028:	10034026 	beq	r2,zero,8005d2c <___vfprintf_internal_r+0x1530>
 800502c:	d9012d17 	ldw	r4,1204(sp)
 8005030:	20800017 	ldw	r2,0(r4)
 8005034:	d9012c17 	ldw	r4,1200(sp)
 8005038:	2007d7fa 	srai	r3,r4,31
 800503c:	d9012d17 	ldw	r4,1204(sp)
 8005040:	10c00115 	stw	r3,4(r2)
 8005044:	21000104 	addi	r4,r4,4
 8005048:	d9012d15 	stw	r4,1204(sp)
 800504c:	d9012c17 	ldw	r4,1200(sp)
 8005050:	11000015 	stw	r4,0(r2)
 8005054:	003e1f06 	br	80048d4 <___vfprintf_internal_r+0xd8>
 8005058:	d9012d17 	ldw	r4,1204(sp)
 800505c:	21000017 	ldw	r4,0(r4)
 8005060:	d9012e15 	stw	r4,1208(sp)
 8005064:	d9012d17 	ldw	r4,1204(sp)
 8005068:	20800104 	addi	r2,r4,4
 800506c:	d9012e17 	ldw	r4,1208(sp)
 8005070:	203ee716 	blt	r4,zero,8004c10 <___vfprintf_internal_r+0x414>
 8005074:	d8812d15 	stw	r2,1204(sp)
 8005078:	ac800007 	ldb	r18,0(r21)
 800507c:	003e3b06 	br	800496c <___vfprintf_internal_r+0x170>
 8005080:	e013883a 	mov	r9,fp
 8005084:	1839883a 	mov	fp,r3
 8005088:	d8c12d17 	ldw	r3,1204(sp)
 800508c:	00800c04 	movi	r2,48
 8005090:	01020074 	movhi	r4,2049
 8005094:	2111c504 	addi	r4,r4,18196
 8005098:	1dc00017 	ldw	r23,0(r3)
 800509c:	18c00104 	addi	r3,r3,4
 80050a0:	d8812505 	stb	r2,1172(sp)
 80050a4:	00801e04 	movi	r2,120
 80050a8:	d8812545 	stb	r2,1173(sp)
 80050ac:	d8c12d15 	stw	r3,1204(sp)
 80050b0:	002d883a 	mov	r22,zero
 80050b4:	84000094 	ori	r16,r16,2
 80050b8:	d9013615 	stw	r4,1240(sp)
 80050bc:	00c00084 	movi	r3,2
 80050c0:	04801e04 	movi	r18,120
 80050c4:	b805883a 	mov	r2,r23
 80050c8:	d8012585 	stb	zero,1174(sp)
 80050cc:	003f4406 	br	8004de0 <___vfprintf_internal_r+0x5e4>
 80050d0:	84000814 	ori	r16,r16,32
 80050d4:	ac800007 	ldb	r18,0(r21)
 80050d8:	003e2406 	br	800496c <___vfprintf_internal_r+0x170>
 80050dc:	d8812d17 	ldw	r2,1204(sp)
 80050e0:	d8012585 	stb	zero,1174(sp)
 80050e4:	e013883a 	mov	r9,fp
 80050e8:	14c00017 	ldw	r19,0(r2)
 80050ec:	1839883a 	mov	fp,r3
 80050f0:	15c00104 	addi	r23,r2,4
 80050f4:	98045526 	beq	r19,zero,800624c <___vfprintf_internal_r+0x1a50>
 80050f8:	9809883a 	mov	r4,r19
 80050fc:	18043116 	blt	r3,zero,80061c4 <___vfprintf_internal_r+0x19c8>
 8005100:	000b883a 	mov	r5,zero
 8005104:	180d883a 	mov	r6,r3
 8005108:	da413c15 	stw	r9,1264(sp)
 800510c:	800a1080 	call	800a108 <memchr>
 8005110:	da413c17 	ldw	r9,1264(sp)
 8005114:	10047a26 	beq	r2,zero,8006300 <___vfprintf_internal_r+0x1b04>
 8005118:	14c5c83a 	sub	r2,r2,r19
 800511c:	d8812b15 	stw	r2,1196(sp)
 8005120:	e083d40e 	bge	fp,r2,8006074 <___vfprintf_internal_r+0x1878>
 8005124:	df012815 	stw	fp,1184(sp)
 8005128:	e004e416 	blt	fp,zero,80064bc <___vfprintf_internal_r+0x1cc0>
 800512c:	d8812583 	ldbu	r2,1174(sp)
 8005130:	df012b15 	stw	fp,1196(sp)
 8005134:	ddc12d15 	stw	r23,1204(sp)
 8005138:	d8013115 	stw	zero,1220(sp)
 800513c:	003f3c06 	br	8004e30 <___vfprintf_internal_r+0x634>
 8005140:	00820074 	movhi	r2,2049
 8005144:	1091c504 	addi	r2,r2,18196
 8005148:	d8813615 	stw	r2,1240(sp)
 800514c:	8080080c 	andi	r2,r16,32
 8005150:	e013883a 	mov	r9,fp
 8005154:	1839883a 	mov	fp,r3
 8005158:	103f891e 	bne	r2,zero,8004f80 <___vfprintf_internal_r+0x784>
 800515c:	8080040c 	andi	r2,r16,16
 8005160:	1002c326 	beq	r2,zero,8005c70 <___vfprintf_internal_r+0x1474>
 8005164:	d8812d17 	ldw	r2,1204(sp)
 8005168:	002d883a 	mov	r22,zero
 800516c:	15c00017 	ldw	r23,0(r2)
 8005170:	10800104 	addi	r2,r2,4
 8005174:	d8812d15 	stw	r2,1204(sp)
 8005178:	003f8606 	br	8004f94 <___vfprintf_internal_r+0x798>
 800517c:	84001014 	ori	r16,r16,64
 8005180:	ac800007 	ldb	r18,0(r21)
 8005184:	003df906 	br	800496c <___vfprintf_internal_r+0x170>
 8005188:	d8812587 	ldb	r2,1174(sp)
 800518c:	1002e51e 	bne	r2,zero,8005d24 <___vfprintf_internal_r+0x1528>
 8005190:	00800804 	movi	r2,32
 8005194:	d8812585 	stb	r2,1174(sp)
 8005198:	ac800007 	ldb	r18,0(r21)
 800519c:	003df306 	br	800496c <___vfprintf_internal_r+0x170>
 80051a0:	84000054 	ori	r16,r16,1
 80051a4:	ac800007 	ldb	r18,0(r21)
 80051a8:	003df006 	br	800496c <___vfprintf_internal_r+0x170>
 80051ac:	84002014 	ori	r16,r16,128
 80051b0:	ac800007 	ldb	r18,0(r21)
 80051b4:	003ded06 	br	800496c <___vfprintf_internal_r+0x170>
 80051b8:	0009883a 	mov	r4,zero
 80051bc:	95bff404 	addi	r22,r18,-48
 80051c0:	182f883a 	mov	r23,r3
 80051c4:	01400284 	movi	r5,10
 80051c8:	8001a6c0 	call	8001a6c <__mulsi3>
 80051cc:	ac800007 	ldb	r18,0(r21)
 80051d0:	1589883a 	add	r4,r2,r22
 80051d4:	ad400044 	addi	r21,r21,1
 80051d8:	95bff404 	addi	r22,r18,-48
 80051dc:	9dbff92e 	bgeu	r19,r22,80051c4 <___vfprintf_internal_r+0x9c8>
 80051e0:	b807883a 	mov	r3,r23
 80051e4:	d9012e15 	stw	r4,1208(sp)
 80051e8:	003de106 	br	8004970 <___vfprintf_internal_r+0x174>
 80051ec:	00800ac4 	movi	r2,43
 80051f0:	d8812585 	stb	r2,1174(sp)
 80051f4:	ac800007 	ldb	r18,0(r21)
 80051f8:	003ddc06 	br	800496c <___vfprintf_internal_r+0x170>
 80051fc:	d8c12d17 	ldw	r3,1204(sp)
 8005200:	d9012d17 	ldw	r4,1204(sp)
 8005204:	e013883a 	mov	r9,fp
 8005208:	18800017 	ldw	r2,0(r3)
 800520c:	21000104 	addi	r4,r4,4
 8005210:	00c00044 	movi	r3,1
 8005214:	d8c12815 	stw	r3,1184(sp)
 8005218:	d8012585 	stb	zero,1174(sp)
 800521c:	d8810405 	stb	r2,1040(sp)
 8005220:	d9012d15 	stw	r4,1204(sp)
 8005224:	d8c12b15 	stw	r3,1196(sp)
 8005228:	dcc10404 	addi	r19,sp,1040
 800522c:	003dda06 	br	8004998 <___vfprintf_internal_r+0x19c>
 8005230:	e013883a 	mov	r9,fp
 8005234:	1839883a 	mov	fp,r3
 8005238:	003ed806 	br	8004d9c <___vfprintf_internal_r+0x5a0>
 800523c:	e013883a 	mov	r9,fp
 8005240:	1839883a 	mov	fp,r3
 8005244:	003f2d06 	br	8004efc <___vfprintf_internal_r+0x700>
 8005248:	e013883a 	mov	r9,fp
 800524c:	1839883a 	mov	fp,r3
 8005250:	003f3806 	br	8004f34 <___vfprintf_internal_r+0x738>
 8005254:	da011d17 	ldw	r8,1140(sp)
 8005258:	d8c11c17 	ldw	r3,1136(sp)
 800525c:	d8812587 	ldb	r2,1174(sp)
 8005260:	10000b26 	beq	r2,zero,8005290 <___vfprintf_internal_r+0xa94>
 8005264:	d8812584 	addi	r2,sp,1174
 8005268:	48800015 	stw	r2,0(r9)
 800526c:	00800044 	movi	r2,1
 8005270:	48800115 	stw	r2,4(r9)
 8005274:	4091883a 	add	r8,r8,r2
 8005278:	1887883a 	add	r3,r3,r2
 800527c:	da011d15 	stw	r8,1140(sp)
 8005280:	d8c11c15 	stw	r3,1136(sp)
 8005284:	008001c4 	movi	r2,7
 8005288:	10c18e16 	blt	r2,r3,80058c4 <___vfprintf_internal_r+0x10c8>
 800528c:	4a400204 	addi	r9,r9,8
 8005290:	d9012a17 	ldw	r4,1192(sp)
 8005294:	20000b26 	beq	r4,zero,80052c4 <___vfprintf_internal_r+0xac8>
 8005298:	d8812504 	addi	r2,sp,1172
 800529c:	48800015 	stw	r2,0(r9)
 80052a0:	00800084 	movi	r2,2
 80052a4:	48800115 	stw	r2,4(r9)
 80052a8:	4091883a 	add	r8,r8,r2
 80052ac:	18c00044 	addi	r3,r3,1
 80052b0:	da011d15 	stw	r8,1140(sp)
 80052b4:	d8c11c15 	stw	r3,1136(sp)
 80052b8:	008001c4 	movi	r2,7
 80052bc:	10c17816 	blt	r2,r3,80058a0 <___vfprintf_internal_r+0x10a4>
 80052c0:	4a400204 	addi	r9,r9,8
 80052c4:	d9012f17 	ldw	r4,1212(sp)
 80052c8:	00802004 	movi	r2,128
 80052cc:	2080fc26 	beq	r4,r2,80056c0 <___vfprintf_internal_r+0xec4>
 80052d0:	d8813117 	ldw	r2,1220(sp)
 80052d4:	d9012b17 	ldw	r4,1196(sp)
 80052d8:	112fc83a 	sub	r23,r2,r4
 80052dc:	05c02a0e 	bge	zero,r23,8005388 <___vfprintf_internal_r+0xb8c>
 80052e0:	07000404 	movi	fp,16
 80052e4:	05020074 	movhi	r20,2049
 80052e8:	a511d084 	addi	r20,r20,18242
 80052ec:	e5c01d0e 	bge	fp,r23,8005364 <___vfprintf_internal_r+0xb68>
 80052f0:	dc812a15 	stw	r18,1192(sp)
 80052f4:	058001c4 	movi	r22,7
 80052f8:	a025883a 	mov	r18,r20
 80052fc:	8029883a 	mov	r20,r16
 8005300:	dc012917 	ldw	r16,1188(sp)
 8005304:	00000306 	br	8005314 <___vfprintf_internal_r+0xb18>
 8005308:	bdfffc04 	addi	r23,r23,-16
 800530c:	4a400204 	addi	r9,r9,8
 8005310:	e5c0110e 	bge	fp,r23,8005358 <___vfprintf_internal_r+0xb5c>
 8005314:	4c800015 	stw	r18,0(r9)
 8005318:	4f000115 	stw	fp,4(r9)
 800531c:	42000404 	addi	r8,r8,16
 8005320:	18c00044 	addi	r3,r3,1
 8005324:	da011d15 	stw	r8,1140(sp)
 8005328:	d8c11c15 	stw	r3,1136(sp)
 800532c:	b0fff60e 	bge	r22,r3,8005308 <___vfprintf_internal_r+0xb0c>
 8005330:	8809883a 	mov	r4,r17
 8005334:	800b883a 	mov	r5,r16
 8005338:	d9811b04 	addi	r6,sp,1132
 800533c:	80047c80 	call	80047c8 <__sprint_r>
 8005340:	103e741e 	bne	r2,zero,8004d14 <___vfprintf_internal_r+0x518>
 8005344:	bdfffc04 	addi	r23,r23,-16
 8005348:	da011d17 	ldw	r8,1140(sp)
 800534c:	d8c11c17 	ldw	r3,1136(sp)
 8005350:	da400404 	addi	r9,sp,16
 8005354:	e5ffef16 	blt	fp,r23,8005314 <___vfprintf_internal_r+0xb18>
 8005358:	a021883a 	mov	r16,r20
 800535c:	9029883a 	mov	r20,r18
 8005360:	dc812a17 	ldw	r18,1192(sp)
 8005364:	4d000015 	stw	r20,0(r9)
 8005368:	4dc00115 	stw	r23,4(r9)
 800536c:	45d1883a 	add	r8,r8,r23
 8005370:	18c00044 	addi	r3,r3,1
