	.file	"lcd.c"
__SP_H__ = 0x3e
__SP_L__ = 0x3d
__SREG__ = 0x3f
__tmp_reg__ = 0
__zero_reg__ = 1
	.text
.Ltext0:
	.cfi_sections	.debug_frame
	.type	toggle_e, @function
toggle_e:
.LFB7:
	.file 1 "lcd.c"
	.loc 1 102 0
	.cfi_startproc
/* prologue: function */
/* frame size = 0 */
/* stack size = 0 */
.L__stack_usage = 0
	.loc 1 103 0
	sbi 0x8,2
.LVL0:
.LBB28:
.LBB29:
	.file 2 "/usr/lib/avr/include/util/delay.h"
	.loc 2 276 0
	ldi r24,lo8(5)
1:	dec r24
	brne 1b
	nop
.LVL1:
.LBE29:
.LBE28:
	.loc 1 105 0
	cbi 0x8,2
	ret
	.cfi_endproc
.LFE7:
	.size	toggle_e, .-toggle_e
	.type	lcd_write, @function
lcd_write:
.LFB8:
	.loc 1 119 0
	.cfi_startproc
.LVL2:
	push r28
.LCFI0:
	.cfi_def_cfa_offset 3
	.cfi_offset 28, -2
/* prologue: function */
/* frame size = 0 */
/* stack size = 1 */
.L__stack_usage = 1
	mov r28,r24
	.loc 1 123 0
	tst r22
	breq .L3
	.loc 1 124 0
	sbi 0x8,0
	rjmp .L4
.L3:
	.loc 1 126 0
	cbi 0x8,0
.L4:
	.loc 1 128 0
	cbi 0x8,1
	.loc 1 151 0
	sbi 0xa,2
	.loc 1 152 0
	sbi 0xa,3
	.loc 1 153 0
	sbi 0xa,4
	.loc 1 154 0
	sbi 0xa,5
	.loc 1 157 0
	cbi 0xb,5
	.loc 1 158 0
	cbi 0xb,4
	.loc 1 159 0
	cbi 0xb,3
	.loc 1 160 0
	cbi 0xb,2
	.loc 1 161 0
	sbrc r28,7
	.loc 1 161 0 discriminator 1
	sbi 0xb,5
.L5:
	.loc 1 162 0
	sbrc r28,6
	.loc 1 162 0 discriminator 1
	sbi 0xb,4
.L6:
	.loc 1 163 0
	sbrc r28,5
	.loc 1 163 0 discriminator 1
	sbi 0xb,3
.L7:
	.loc 1 164 0
	sbrc r28,4
	.loc 1 164 0 discriminator 1
	sbi 0xb,2
.L8:
	.loc 1 165 0
	call toggle_e
.LVL3:
	.loc 1 168 0
	cbi 0xb,5
	.loc 1 169 0
	cbi 0xb,4
	.loc 1 170 0
	cbi 0xb,3
	.loc 1 171 0
	cbi 0xb,2
	.loc 1 172 0
	sbrc r28,3
	.loc 1 172 0 discriminator 1
	sbi 0xb,5
.L9:
	.loc 1 173 0
	sbrc r28,2
	.loc 1 173 0 discriminator 1
	sbi 0xb,4
.L10:
	.loc 1 174 0
	sbrc r28,1
	.loc 1 174 0 discriminator 1
	sbi 0xb,3
.L11:
	.loc 1 175 0
	sbrc r28,0
	.loc 1 175 0 discriminator 1
	sbi 0xb,2
.L12:
	.loc 1 176 0
	call toggle_e
.LVL4:
	.loc 1 179 0
	sbi 0xb,2
	.loc 1 180 0
	sbi 0xb,3
	.loc 1 181 0
	sbi 0xb,4
	.loc 1 182 0
	sbi 0xb,5
/* epilogue start */
	.loc 1 184 0
	pop r28
.LVL5:
	ret
	.cfi_endproc
.LFE8:
	.size	lcd_write, .-lcd_write
	.type	lcd_read.constprop.0, @function
lcd_read.constprop.0:
.LFB22:
	.loc 1 199 0
	.cfi_startproc
/* prologue: function */
/* frame size = 0 */
/* stack size = 0 */
.L__stack_usage = 0
.LVL6:
	.loc 1 207 0
	cbi 0x8,0
	.loc 1 208 0
	sbi 0x8,1
	.loc 1 230 0
	cbi 0xa,2
	.loc 1 231 0
	cbi 0xa,3
	.loc 1 232 0
	cbi 0xa,4
	.loc 1 233 0
	cbi 0xa,5
	.loc 1 236 0
	sbi 0x8,2
.LVL7:
.LBB30:
.LBB31:
	.loc 2 276 0
	ldi r24,lo8(5)
1:	dec r24
	brne 1b
	nop
.LVL8:
.LBE31:
.LBE30:
	.loc 1 239 0
	sbis 0x9,2
	rjmp .L44
	.loc 1 239 0
	ldi r24,lo8(16)
	rjmp .L36
.L44:
	.loc 1 238 0
	ldi r24,0
.L36:
.LVL9:
	.loc 1 240 0
	sbic 0x9,3
	.loc 1 240 0
	ori r24,lo8(32)
.LVL10:
.L37:
	.loc 1 241 0
	sbic 0x9,4
	.loc 1 241 0
	ori r24,lo8(64)
.LVL11:
.L38:
	.loc 1 242 0
	sbic 0x9,5
	.loc 1 242 0
	ori r24,lo8(-128)
.LVL12:
.L39:
	.loc 1 243 0
	cbi 0x8,2
.LVL13:
.LBB32:
.LBB33:
	.loc 2 276 0
	ldi r25,lo8(5)
1:	dec r25
	brne 1b
	nop
.LVL14:
.LBE33:
.LBE32:
	.loc 1 248 0
	sbi 0x8,2
.LVL15:
.LBB34:
.LBB35:
	.loc 2 276 0
	ldi r25,lo8(5)
1:	dec r25
	brne 1b
	nop
.LVL16:
.LBE35:
.LBE34:
	.loc 1 250 0
	sbic 0x9,2
	.loc 1 250 0
	ori r24,lo8(1)
.LVL17:
.L40:
	.loc 1 251 0
	sbic 0x9,3
	.loc 1 251 0
	ori r24,lo8(2)
.LVL18:
.L41:
	.loc 1 252 0
	sbic 0x9,4
	.loc 1 252 0
	ori r24,lo8(4)
.LVL19:
.L42:
	.loc 1 253 0
	sbic 0x9,5
	.loc 1 253 0
	ori r24,lo8(8)
.LVL20:
.L43:
	.loc 1 254 0
	cbi 0x8,2
	.loc 1 257 0
	ret
	.cfi_endproc
.LFE22:
	.size	lcd_read.constprop.0, .-lcd_read.constprop.0
	.type	lcd_waitbusy, @function
lcd_waitbusy:
.LFB10:
	.loc 1 270 0
	.cfi_startproc
/* prologue: function */
/* frame size = 0 */
/* stack size = 0 */
.L__stack_usage = 0
.L67:
	.loc 1 274 0 discriminator 1
	call lcd_read.constprop.0
.LVL21:
	sbrc r24,7
	rjmp .L67
.LVL22:
.LBB36:
.LBB37:
	.loc 2 276 0
	ldi r24,lo8(21)
1:	dec r24
	brne 1b
.LVL23:
	nop
.LVL24:
.LBE37:
.LBE36:
	.loc 1 280 0
	jmp lcd_read.constprop.0
.LVL25:
	.cfi_endproc
.LFE10:
	.size	lcd_waitbusy, .-lcd_waitbusy
.global	lcd_command
	.type	lcd_command, @function
lcd_command:
.LFB12:
	.loc 1 339 0
	.cfi_startproc
.LVL26:
	push r28
.LCFI1:
	.cfi_def_cfa_offset 3
	.cfi_offset 28, -2
/* prologue: function */
/* frame size = 0 */
/* stack size = 1 */
.L__stack_usage = 1
	mov r28,r24
	.loc 1 340 0
	call lcd_waitbusy
.LVL27:
	.loc 1 341 0
	ldi r22,0
	mov r24,r28
/* epilogue start */
	.loc 1 342 0
	pop r28
.LVL28:
	.loc 1 341 0
	jmp lcd_write
.LVL29:
	.cfi_endproc
.LFE12:
	.size	lcd_command, .-lcd_command
.global	lcd_data
	.type	lcd_data, @function
lcd_data:
.LFB13:
	.loc 1 351 0
	.cfi_startproc
.LVL30:
	push r28
.LCFI2:
	.cfi_def_cfa_offset 3
	.cfi_offset 28, -2
/* prologue: function */
/* frame size = 0 */
/* stack size = 1 */
.L__stack_usage = 1
	mov r28,r24
	.loc 1 352 0
	call lcd_waitbusy
.LVL31:
	.loc 1 353 0
	ldi r22,lo8(1)
	mov r24,r28
/* epilogue start */
	.loc 1 354 0
	pop r28
.LVL32:
	.loc 1 353 0
	jmp lcd_write
.LVL33:
	.cfi_endproc
.LFE13:
	.size	lcd_data, .-lcd_data
.global	lcd_gotoxy
	.type	lcd_gotoxy, @function
lcd_gotoxy:
.LFB14:
	.loc 1 365 0
	.cfi_startproc
.LVL34:
/* prologue: function */
/* frame size = 0 */
/* stack size = 0 */
.L__stack_usage = 0
	.loc 1 370 0
	cpse r22,__zero_reg__
	rjmp .L72
	.loc 1 371 0
	subi r24,lo8(-(-128))
.LVL35:
	rjmp .L73
.LVL36:
.L72:
	.loc 1 373 0
	subi r24,lo8(-(-64))
.LVL37:
.L73:
	jmp lcd_command
.LVL38:
	.cfi_endproc
.LFE14:
	.size	lcd_gotoxy, .-lcd_gotoxy
.global	lcd_getxy
	.type	lcd_getxy, @function
lcd_getxy:
.LFB15:
	.loc 1 392 0
	.cfi_startproc
/* prologue: function */
/* frame size = 0 */
/* stack size = 0 */
.L__stack_usage = 0
	.loc 1 393 0
	call lcd_waitbusy
.LVL39:
	.loc 1 394 0
	ldi r25,0
	ret
	.cfi_endproc
.LFE15:
	.size	lcd_getxy, .-lcd_getxy
.global	lcd_clrscr
	.type	lcd_clrscr, @function
lcd_clrscr:
.LFB16:
	.loc 1 401 0
	.cfi_startproc
/* prologue: function */
/* frame size = 0 */
/* stack size = 0 */
.L__stack_usage = 0
	.loc 1 402 0
	ldi r24,lo8(1)
	jmp lcd_command
.LVL40:
	.cfi_endproc
.LFE16:
	.size	lcd_clrscr, .-lcd_clrscr
.global	lcd_home
	.type	lcd_home, @function
lcd_home:
.LFB17:
	.loc 1 410 0
	.cfi_startproc
/* prologue: function */
/* frame size = 0 */
/* stack size = 0 */
.L__stack_usage = 0
	.loc 1 411 0
	ldi r24,lo8(2)
	jmp lcd_command
.LVL41:
	.cfi_endproc
.LFE17:
	.size	lcd_home, .-lcd_home
.global	lcd_putc
	.type	lcd_putc, @function
lcd_putc:
.LFB18:
	.loc 1 421 0
	.cfi_startproc
.LVL42:
	push r28
.LCFI3:
	.cfi_def_cfa_offset 3
	.cfi_offset 28, -2
/* prologue: function */
/* frame size = 0 */
/* stack size = 1 */
.L__stack_usage = 1
	mov r28,r24
	.loc 1 425 0
	call lcd_waitbusy
.LVL43:
	.loc 1 426 0
	cpi r28,lo8(10)
	brne .L78
.LVL44:
.LBB40:
.LBB41:
	.loc 1 298 0
	cpi r24,lo8(64)
	brlo .L80
	.loc 1 301 0
	ldi r24,0
.LVL45:
	rjmp .L79
.LVL46:
.L80:
	.loc 1 299 0
	ldi r24,lo8(64)
.LVL47:
.L79:
	.loc 1 324 0
	subi r24,lo8(-(-128))
.LVL48:
/* epilogue start */
.LBE41:
.LBE40:
	.loc 1 459 0
	pop r28
.LVL49:
.LBB43:
.LBB42:
	.loc 1 324 0
	jmp lcd_command
.LVL50:
.L78:
.LBE42:
.LBE43:
	.loc 1 456 0
	ldi r22,lo8(1)
	mov r24,r28
.LVL51:
/* epilogue start */
	.loc 1 459 0
	pop r28
.LVL52:
	.loc 1 456 0
	jmp lcd_write
.LVL53:
	.cfi_endproc
.LFE18:
	.size	lcd_putc, .-lcd_putc
.global	lcd_puts
	.type	lcd_puts, @function
lcd_puts:
.LFB19:
	.loc 1 469 0
	.cfi_startproc
.LVL54:
	push r28
.LCFI4:
	.cfi_def_cfa_offset 3
	.cfi_offset 28, -2
	push r29
.LCFI5:
	.cfi_def_cfa_offset 4
	.cfi_offset 29, -3
/* prologue: function */
/* frame size = 0 */
/* stack size = 2 */
.L__stack_usage = 2
	movw r28,r24
.LVL55:
.L82:
	.loc 1 472 0
	ld r24,Y+
.LVL56:
	tst r24
	breq .L84
	.loc 1 473 0
	call lcd_putc
.LVL57:
	rjmp .L82
.LVL58:
.L84:
/* epilogue start */
	.loc 1 476 0
	pop r29
	pop r28
.LVL59:
	ret
	.cfi_endproc
.LFE19:
	.size	lcd_puts, .-lcd_puts
.global	lcd_puts_p
	.type	lcd_puts_p, @function
lcd_puts_p:
.LFB20:
	.loc 1 486 0
	.cfi_startproc
.LVL60:
	push r28
.LCFI6:
	.cfi_def_cfa_offset 3
	.cfi_offset 28, -2
	push r29
.LCFI7:
	.cfi_def_cfa_offset 4
	.cfi_offset 29, -3
/* prologue: function */
/* frame size = 0 */
/* stack size = 2 */
.L__stack_usage = 2
	movw r30,r24
.LVL61:
.L86:
.LBB44:
	.loc 1 489 0
/* #APP */
 ;  489 "lcd.c" 1
	lpm r24, Z
	
 ;  0 "" 2
.LVL62:
/* #NOAPP */
	movw r28,r30
	adiw r28,1
.LVL63:
.LBE44:
	.loc 1 489 0
	tst r24
	breq .L88
	.loc 1 490 0
	call lcd_putc
.LVL64:
	movw r30,r28
	rjmp .L86
.LVL65:
.L88:
/* epilogue start */
	.loc 1 493 0
	pop r29
	pop r28
.LVL66:
	ret
	.cfi_endproc
.LFE20:
	.size	lcd_puts_p, .-lcd_puts_p
.global	lcd_init
	.type	lcd_init, @function
lcd_init:
.LFB21:
	.loc 1 505 0
	.cfi_startproc
.LVL67:
	push r28
.LCFI8:
	.cfi_def_cfa_offset 3
	.cfi_offset 28, -2
/* prologue: function */
/* frame size = 0 */
/* stack size = 1 */
.L__stack_usage = 1
	mov r28,r24
	.loc 1 531 0
	sbi 0x7,0
	.loc 1 532 0
	sbi 0x7,1
	.loc 1 533 0
	sbi 0x7,2
	.loc 1 534 0
	sbi 0xa,2
	.loc 1 535 0
	sbi 0xa,3
	.loc 1 536 0
	sbi 0xa,4
	.loc 1 537 0
	sbi 0xa,5
.LVL68:
.LBB45:
.LBB46:
	.loc 2 276 0
	ldi r24,lo8(-1537)
	ldi r25,hi8(-1537)
1:	sbiw r24,1
	brne 1b
.LVL69:
	rjmp .
	nop
.LVL70:
.LBE46:
.LBE45:
	.loc 1 542 0
	sbi 0xb,3
	.loc 1 543 0
	sbi 0xb,2
	.loc 1 544 0
	call toggle_e
.LVL71:
.LBB47:
.LBB48:
	.loc 2 276 0
	ldi r24,lo8(19999)
	ldi r25,hi8(19999)
1:	sbiw r24,1
	brne 1b
	rjmp .
	nop
.LVL72:
.LBE48:
.LBE47:
	.loc 1 548 0
	call toggle_e
.LVL73:
.LBB49:
.LBB50:
	.loc 2 276 0
	ldi r24,lo8(255)
	ldi r25,hi8(255)
1:	sbiw r24,1
	brne 1b
	rjmp .
	nop
.LVL74:
.LBE50:
.LBE49:
	.loc 1 552 0
	call toggle_e
.LVL75:
.LBB51:
.LBB52:
	.loc 2 276 0
	ldi r24,lo8(255)
	ldi r25,hi8(255)
1:	sbiw r24,1
	brne 1b
	rjmp .
	nop
.LVL76:
.LBE52:
.LBE51:
	.loc 1 556 0
	cbi 0xb,2
	.loc 1 557 0
	call toggle_e
.LVL77:
.LBB53:
.LBB54:
	.loc 2 276 0
	ldi r24,lo8(255)
	ldi r25,hi8(255)
1:	sbiw r24,1
	brne 1b
	rjmp .
	nop
.LVL78:
.LBE54:
.LBE53:
	.loc 1 585 0
	ldi r24,lo8(40)
	call lcd_command
.LVL79:
	.loc 1 587 0
	ldi r24,lo8(8)
	call lcd_command
.LVL80:
	.loc 1 588 0
	call lcd_clrscr
.LVL81:
	.loc 1 589 0
	ldi r24,lo8(6)
	call lcd_command
.LVL82:
	.loc 1 590 0
	mov r24,r28
/* epilogue start */
	.loc 1 592 0
	pop r28
.LVL83:
	.loc 1 590 0
	jmp lcd_command
.LVL84:
	.cfi_endproc
.LFE21:
	.size	lcd_init, .-lcd_init
.Letext0:
	.file 3 "/usr/lib/avr/include/stdint.h"